	.section .rodata.cst8,"a",@progbits
	.align	16
caml_negf_mask:	.quad   0x8000000000000000, 0
	.align	16
caml_absf_mask:	.quad   0x7FFFFFFFFFFFFFFF, 0xFFFFFFFFFFFFFFFF
	.data
	.globl	caml_startup__data_begin
caml_startup__data_begin:
	.text
	.globl	caml_startup__code_begin
caml_startup__code_begin:
	.text
	.align	16
	.globl	caml_program
caml_program:
	.cfi_startproc
	subq	$8, %rsp
	.cfi_adjust_cfa_offset	8
.L100:
	call	camlPervasives__entry@PLT
.L101:
	movq	caml_globals_inited@GOTPCREL(%rip), %rax
	addq	$1, (%rax)
	call	camlArray__entry@PLT
.L102:
	movq	caml_globals_inited@GOTPCREL(%rip), %rax
	addq	$1, (%rax)
	call	camlList__entry@PLT
.L103:
	movq	caml_globals_inited@GOTPCREL(%rip), %rax
	addq	$1, (%rax)
	call	camlChar__entry@PLT
.L104:
	movq	caml_globals_inited@GOTPCREL(%rip), %rax
	addq	$1, (%rax)
	call	camlString__entry@PLT
.L105:
	movq	caml_globals_inited@GOTPCREL(%rip), %rax
	addq	$1, (%rax)
	call	camlSys__entry@PLT
.L106:
	movq	caml_globals_inited@GOTPCREL(%rip), %rax
	addq	$1, (%rax)
	call	camlSort__entry@PLT
.L107:
	movq	caml_globals_inited@GOTPCREL(%rip), %rax
	addq	$1, (%rax)
	call	camlMarshal__entry@PLT
.L108:
	movq	caml_globals_inited@GOTPCREL(%rip), %rax
	addq	$1, (%rax)
	call	camlObj__entry@PLT
.L109:
	movq	caml_globals_inited@GOTPCREL(%rip), %rax
	addq	$1, (%rax)
	call	camlInt32__entry@PLT
.L110:
	movq	caml_globals_inited@GOTPCREL(%rip), %rax
	addq	$1, (%rax)
	call	camlInt64__entry@PLT
.L111:
	movq	caml_globals_inited@GOTPCREL(%rip), %rax
	addq	$1, (%rax)
	call	camlNativeint__entry@PLT
.L112:
	movq	caml_globals_inited@GOTPCREL(%rip), %rax
	addq	$1, (%rax)
	call	camlLexing__entry@PLT
.L113:
	movq	caml_globals_inited@GOTPCREL(%rip), %rax
	addq	$1, (%rax)
	call	camlParsing__entry@PLT
.L114:
	movq	caml_globals_inited@GOTPCREL(%rip), %rax
	addq	$1, (%rax)
	call	camlSet__entry@PLT
.L115:
	movq	caml_globals_inited@GOTPCREL(%rip), %rax
	addq	$1, (%rax)
	call	camlMap__entry@PLT
.L116:
	movq	caml_globals_inited@GOTPCREL(%rip), %rax
	addq	$1, (%rax)
	call	camlStack__entry@PLT
.L117:
	movq	caml_globals_inited@GOTPCREL(%rip), %rax
	addq	$1, (%rax)
	call	camlQueue__entry@PLT
.L118:
	movq	caml_globals_inited@GOTPCREL(%rip), %rax
	addq	$1, (%rax)
	call	camlCamlinternalLazy__entry@PLT
.L119:
	movq	caml_globals_inited@GOTPCREL(%rip), %rax
	addq	$1, (%rax)
	call	camlLazy__entry@PLT
.L120:
	movq	caml_globals_inited@GOTPCREL(%rip), %rax
	addq	$1, (%rax)
	call	camlStream__entry@PLT
.L121:
	movq	caml_globals_inited@GOTPCREL(%rip), %rax
	addq	$1, (%rax)
	call	camlBuffer__entry@PLT
.L122:
	movq	caml_globals_inited@GOTPCREL(%rip), %rax
	addq	$1, (%rax)
	call	camlPrintf__entry@PLT
.L123:
	movq	caml_globals_inited@GOTPCREL(%rip), %rax
	addq	$1, (%rax)
	call	camlArg__entry@PLT
.L124:
	movq	caml_globals_inited@GOTPCREL(%rip), %rax
	addq	$1, (%rax)
	call	camlPrintexc__entry@PLT
.L125:
	movq	caml_globals_inited@GOTPCREL(%rip), %rax
	addq	$1, (%rax)
	call	camlGc__entry@PLT
.L126:
	movq	caml_globals_inited@GOTPCREL(%rip), %rax
	addq	$1, (%rax)
	call	camlDigest__entry@PLT
.L127:
	movq	caml_globals_inited@GOTPCREL(%rip), %rax
	addq	$1, (%rax)
	call	camlRandom__entry@PLT
.L128:
	movq	caml_globals_inited@GOTPCREL(%rip), %rax
	addq	$1, (%rax)
	call	camlHashtbl__entry@PLT
.L129:
	movq	caml_globals_inited@GOTPCREL(%rip), %rax
	addq	$1, (%rax)
	call	camlFormat__entry@PLT
.L130:
	movq	caml_globals_inited@GOTPCREL(%rip), %rax
	addq	$1, (%rax)
	call	camlScanf__entry@PLT
.L131:
	movq	caml_globals_inited@GOTPCREL(%rip), %rax
	addq	$1, (%rax)
	call	camlCallback__entry@PLT
.L132:
	movq	caml_globals_inited@GOTPCREL(%rip), %rax
	addq	$1, (%rax)
	call	camlCamlinternalOO__entry@PLT
.L133:
	movq	caml_globals_inited@GOTPCREL(%rip), %rax
	addq	$1, (%rax)
	call	camlOo__entry@PLT
.L134:
	movq	caml_globals_inited@GOTPCREL(%rip), %rax
	addq	$1, (%rax)
	call	camlCamlinternalMod__entry@PLT
.L135:
	movq	caml_globals_inited@GOTPCREL(%rip), %rax
	addq	$1, (%rax)
	call	camlGenlex__entry@PLT
.L136:
	movq	caml_globals_inited@GOTPCREL(%rip), %rax
	addq	$1, (%rax)
	call	camlWeak__entry@PLT
.L137:
	movq	caml_globals_inited@GOTPCREL(%rip), %rax
	addq	$1, (%rax)
	call	camlFilename__entry@PLT
.L138:
	movq	caml_globals_inited@GOTPCREL(%rip), %rax
	addq	$1, (%rax)
	call	camlComplex__entry@PLT
.L139:
	movq	caml_globals_inited@GOTPCREL(%rip), %rax
	addq	$1, (%rax)
	call	camlArrayLabels__entry@PLT
.L140:
	movq	caml_globals_inited@GOTPCREL(%rip), %rax
	addq	$1, (%rax)
	call	camlListLabels__entry@PLT
.L141:
	movq	caml_globals_inited@GOTPCREL(%rip), %rax
	addq	$1, (%rax)
	call	camlStringLabels__entry@PLT
.L142:
	movq	caml_globals_inited@GOTPCREL(%rip), %rax
	addq	$1, (%rax)
	call	camlMoreLabels__entry@PLT
.L143:
	movq	caml_globals_inited@GOTPCREL(%rip), %rax
	addq	$1, (%rax)
	call	camlStdLabels__entry@PLT
.L144:
	movq	caml_globals_inited@GOTPCREL(%rip), %rax
	addq	$1, (%rax)
	call	camlMisc__entry@PLT
.L145:
	movq	caml_globals_inited@GOTPCREL(%rip), %rax
	addq	$1, (%rax)
	call	camlTbl__entry@PLT
.L146:
	movq	caml_globals_inited@GOTPCREL(%rip), %rax
	addq	$1, (%rax)
	call	camlConfig__entry@PLT
.L147:
	movq	caml_globals_inited@GOTPCREL(%rip), %rax
	addq	$1, (%rax)
	call	camlClflags__entry@PLT
.L148:
	movq	caml_globals_inited@GOTPCREL(%rip), %rax
	addq	$1, (%rax)
	call	camlTerminfo__entry@PLT
.L149:
	movq	caml_globals_inited@GOTPCREL(%rip), %rax
	addq	$1, (%rax)
	call	camlCcomp__entry@PLT
.L150:
	movq	caml_globals_inited@GOTPCREL(%rip), %rax
	addq	$1, (%rax)
	call	camlWarnings__entry@PLT
.L151:
	movq	caml_globals_inited@GOTPCREL(%rip), %rax
	addq	$1, (%rax)
	call	camlConsistbl__entry@PLT
.L152:
	movq	caml_globals_inited@GOTPCREL(%rip), %rax
	addq	$1, (%rax)
	call	camlLocation__entry@PLT
.L153:
	movq	caml_globals_inited@GOTPCREL(%rip), %rax
	addq	$1, (%rax)
	call	camlLongident__entry@PLT
.L154:
	movq	caml_globals_inited@GOTPCREL(%rip), %rax
	addq	$1, (%rax)
	call	camlSyntaxerr__entry@PLT
.L155:
	movq	caml_globals_inited@GOTPCREL(%rip), %rax
	addq	$1, (%rax)
	call	camlParser__entry@PLT
.L156:
	movq	caml_globals_inited@GOTPCREL(%rip), %rax
	addq	$1, (%rax)
	call	camlLexer__entry@PLT
.L157:
	movq	caml_globals_inited@GOTPCREL(%rip), %rax
	addq	$1, (%rax)
	call	camlParse__entry@PLT
.L158:
	movq	caml_globals_inited@GOTPCREL(%rip), %rax
	addq	$1, (%rax)
	call	camlPrintast__entry@PLT
.L159:
	movq	caml_globals_inited@GOTPCREL(%rip), %rax
	addq	$1, (%rax)
	call	camlIdent__entry@PLT
.L160:
	movq	caml_globals_inited@GOTPCREL(%rip), %rax
	addq	$1, (%rax)
	call	camlPath__entry@PLT
.L161:
	movq	caml_globals_inited@GOTPCREL(%rip), %rax
	addq	$1, (%rax)
	call	camlPrimitive__entry@PLT
.L162:
	movq	caml_globals_inited@GOTPCREL(%rip), %rax
	addq	$1, (%rax)
	call	camlTypes__entry@PLT
.L163:
	movq	caml_globals_inited@GOTPCREL(%rip), %rax
	addq	$1, (%rax)
	call	camlBtype__entry@PLT
.L164:
	movq	caml_globals_inited@GOTPCREL(%rip), %rax
	addq	$1, (%rax)
	call	camlOprint__entry@PLT
.L165:
	movq	caml_globals_inited@GOTPCREL(%rip), %rax
	addq	$1, (%rax)
	call	camlSubst__entry@PLT
.L166:
	movq	caml_globals_inited@GOTPCREL(%rip), %rax
	addq	$1, (%rax)
	call	camlPredef__entry@PLT
.L167:
	movq	caml_globals_inited@GOTPCREL(%rip), %rax
	addq	$1, (%rax)
	call	camlDatarepr__entry@PLT
.L168:
	movq	caml_globals_inited@GOTPCREL(%rip), %rax
	addq	$1, (%rax)
	call	camlCmi_format__entry@PLT
.L169:
	movq	caml_globals_inited@GOTPCREL(%rip), %rax
	addq	$1, (%rax)
	call	camlEnv__entry@PLT
.L170:
	movq	caml_globals_inited@GOTPCREL(%rip), %rax
	addq	$1, (%rax)
	call	camlTypedtree__entry@PLT
.L171:
	movq	caml_globals_inited@GOTPCREL(%rip), %rax
	addq	$1, (%rax)
	call	camlPrinttyped__entry@PLT
.L172:
	movq	caml_globals_inited@GOTPCREL(%rip), %rax
	addq	$1, (%rax)
	call	camlCtype__entry@PLT
.L173:
	movq	caml_globals_inited@GOTPCREL(%rip), %rax
	addq	$1, (%rax)
	call	camlPrinttyp__entry@PLT
.L174:
	movq	caml_globals_inited@GOTPCREL(%rip), %rax
	addq	$1, (%rax)
	call	camlIncludeclass__entry@PLT
.L175:
	movq	caml_globals_inited@GOTPCREL(%rip), %rax
	addq	$1, (%rax)
	call	camlMtype__entry@PLT
.L176:
	movq	caml_globals_inited@GOTPCREL(%rip), %rax
	addq	$1, (%rax)
	call	camlIncludecore__entry@PLT
.L177:
	movq	caml_globals_inited@GOTPCREL(%rip), %rax
	addq	$1, (%rax)
	call	camlIncludemod__entry@PLT
.L178:
	movq	caml_globals_inited@GOTPCREL(%rip), %rax
	addq	$1, (%rax)
	call	camlTypetexp__entry@PLT
.L179:
	movq	caml_globals_inited@GOTPCREL(%rip), %rax
	addq	$1, (%rax)
	call	camlParmatch__entry@PLT
.L180:
	movq	caml_globals_inited@GOTPCREL(%rip), %rax
	addq	$1, (%rax)
	call	camlCmt_format__entry@PLT
.L181:
	movq	caml_globals_inited@GOTPCREL(%rip), %rax
	addq	$1, (%rax)
	call	camlStypes__entry@PLT
.L182:
	movq	caml_globals_inited@GOTPCREL(%rip), %rax
	addq	$1, (%rax)
	call	camlTypecore__entry@PLT
.L183:
	movq	caml_globals_inited@GOTPCREL(%rip), %rax
	addq	$1, (%rax)
	call	camlTypedecl__entry@PLT
.L184:
	movq	caml_globals_inited@GOTPCREL(%rip), %rax
	addq	$1, (%rax)
	call	camlTypeclass__entry@PLT
.L185:
	movq	caml_globals_inited@GOTPCREL(%rip), %rax
	addq	$1, (%rax)
	call	camlTypemod__entry@PLT
.L186:
	movq	caml_globals_inited@GOTPCREL(%rip), %rax
	addq	$1, (%rax)
	call	camlLambda__entry@PLT
.L187:
	movq	caml_globals_inited@GOTPCREL(%rip), %rax
	addq	$1, (%rax)
	call	camlPrintlambda__entry@PLT
.L188:
	movq	caml_globals_inited@GOTPCREL(%rip), %rax
	addq	$1, (%rax)
	call	camlTypeopt__entry@PLT
.L189:
	movq	caml_globals_inited@GOTPCREL(%rip), %rax
	addq	$1, (%rax)
	call	camlSwitch__entry@PLT
.L190:
	movq	caml_globals_inited@GOTPCREL(%rip), %rax
	addq	$1, (%rax)
	call	camlMatching__entry@PLT
.L191:
	movq	caml_globals_inited@GOTPCREL(%rip), %rax
	addq	$1, (%rax)
	call	camlTranslobj__entry@PLT
.L192:
	movq	caml_globals_inited@GOTPCREL(%rip), %rax
	addq	$1, (%rax)
	call	camlTranslcore__entry@PLT
.L193:
	movq	caml_globals_inited@GOTPCREL(%rip), %rax
	addq	$1, (%rax)
	call	camlTranslclass__entry@PLT
.L194:
	movq	caml_globals_inited@GOTPCREL(%rip), %rax
	addq	$1, (%rax)
	call	camlTranslmod__entry@PLT
.L195:
	movq	caml_globals_inited@GOTPCREL(%rip), %rax
	addq	$1, (%rax)
	call	camlSimplif__entry@PLT
.L196:
	movq	caml_globals_inited@GOTPCREL(%rip), %rax
	addq	$1, (%rax)
	call	camlRuntimedef__entry@PLT
.L197:
	movq	caml_globals_inited@GOTPCREL(%rip), %rax
	addq	$1, (%rax)
	call	camlPparse__entry@PLT
.L198:
	movq	caml_globals_inited@GOTPCREL(%rip), %rax
	addq	$1, (%rax)
	call	camlMain_args__entry@PLT
.L199:
	movq	caml_globals_inited@GOTPCREL(%rip), %rax
	addq	$1, (%rax)
	call	camlUnix__entry@PLT
.L200:
	movq	caml_globals_inited@GOTPCREL(%rip), %rax
	addq	$1, (%rax)
	call	camlUnixLabels__entry@PLT
.L201:
	movq	caml_globals_inited@GOTPCREL(%rip), %rax
	addq	$1, (%rax)
	call	camlQmlContext__entry@PLT
.L202:
	movq	caml_globals_inited@GOTPCREL(%rip), %rax
	addq	$1, (%rax)
	call	camlStr__entry@PLT
.L203:
	movq	caml_globals_inited@GOTPCREL(%rip), %rax
	addq	$1, (%rax)
	call	camlProgram__entry@PLT
.L204:
	movq	caml_globals_inited@GOTPCREL(%rip), %rax
	addq	$1, (%rax)
	movq	$1, %rax
	addq	$8, %rsp
	.cfi_adjust_cfa_offset	-8
	ret
	.cfi_adjust_cfa_offset	8
	.cfi_endproc
	.type	caml_program,@function
	.size	caml_program,.-caml_program
	.text
	.align	16
	.globl	caml_curry11
caml_curry11:
	.cfi_startproc
	subq	$8, %rsp
	.cfi_adjust_cfa_offset	8
.L205:
	movq	%rax, %rsi
.L206:	subq	$48, %r15
	movq	caml_young_limit@GOTPCREL(%rip), %rax
	cmpq	(%rax), %r15
	jb	.L207
	leaq	8(%r15), %rax
	movq	$5367, -8(%rax)
	movq	caml_curry11_1@GOTPCREL(%rip), %rdi
	movq	%rdi, (%rax)
	movq	$21, 8(%rax)
	movq	caml_curry11_1_app@GOTPCREL(%rip), %rdi
	movq	%rdi, 16(%rax)
	movq	%rsi, 24(%rax)
	movq	%rbx, 32(%rax)
	addq	$8, %rsp
	.cfi_adjust_cfa_offset	-8
	ret
	.cfi_adjust_cfa_offset	8
.L207:	call	caml_call_gc@PLT
.L208:	jmp	.L206
	.cfi_endproc
	.type	caml_curry11,@function
	.size	caml_curry11,.-caml_curry11
	.text
	.align	16
	.globl	caml_curry11_1_app
caml_curry11_1_app:
	.cfi_startproc
	subq	$72, %rsp
	.cfi_adjust_cfa_offset	72
.L209:
	movq	%rax, 64(%rsp)
	movq	%rbx, 56(%rsp)
	movq	%rdi, 48(%rsp)
	movq	%rsi, 40(%rsp)
	movq	%rdx, 32(%rsp)
	movq	%rcx, 24(%rsp)
	movq	%r8, 16(%rsp)
	movq	%r9, 8(%rsp)
	movq	%r12, 0(%rsp)
	movq	%r13, %r11
	movq	80(%rsp), %rax
	movq	32(%rax), %rbp
	movq	24(%rax), %rax
	movq	16(%rbp), %r10
	subq	$16, %rsp
	.cfi_adjust_cfa_offset	16
	movq	80(%rsp), %rbx
	movq	72(%rsp), %rdi
	movq	64(%rsp), %rsi
	movq	56(%rsp), %rdx
	movq	48(%rsp), %rcx
	movq	40(%rsp), %r8
	movq	32(%rsp), %r9
	movq	24(%rsp), %r12
	movq	16(%rsp), %r13
	movq	%r11, 0(%rsp)
	movq	%rbp, 8(%rsp)
	call	*%r10
.L210:
	addq	$16, %rsp
	.cfi_adjust_cfa_offset	-16
	addq	$72, %rsp
	.cfi_adjust_cfa_offset	-72
	ret
	.cfi_adjust_cfa_offset	72
	.cfi_endproc
	.type	caml_curry11_1_app,@function
	.size	caml_curry11_1_app,.-caml_curry11_1_app
	.text
	.align	16
	.globl	caml_curry11_1
caml_curry11_1:
	.cfi_startproc
	subq	$8, %rsp
	.cfi_adjust_cfa_offset	8
.L211:
	movq	%rax, %rsi
.L212:	subq	$48, %r15
	movq	caml_young_limit@GOTPCREL(%rip), %rax
	cmpq	(%rax), %r15
	jb	.L213
	leaq	8(%r15), %rax
	movq	$5367, -8(%rax)
	movq	caml_curry11_2@GOTPCREL(%rip), %rdi
	movq	%rdi, (%rax)
	movq	$19, 8(%rax)
	movq	caml_curry11_2_app@GOTPCREL(%rip), %rdi
	movq	%rdi, 16(%rax)
	movq	%rsi, 24(%rax)
	movq	%rbx, 32(%rax)
	addq	$8, %rsp
	.cfi_adjust_cfa_offset	-8
	ret
	.cfi_adjust_cfa_offset	8
.L213:	call	caml_call_gc@PLT
.L214:	jmp	.L212
	.cfi_endproc
	.type	caml_curry11_1,@function
	.size	caml_curry11_1,.-caml_curry11_1
	.text
	.align	16
	.globl	caml_curry11_2_app
caml_curry11_2_app:
	.cfi_startproc
	subq	$72, %rsp
	.cfi_adjust_cfa_offset	72
.L215:
	movq	%rax, 56(%rsp)
	movq	%rbx, 48(%rsp)
	movq	%rdi, 40(%rsp)
	movq	%rsi, 32(%rsp)
	movq	%rdx, 24(%rsp)
	movq	%rcx, 16(%rsp)
	movq	%r8, 8(%rsp)
	movq	%r9, 0(%rsp)
	movq	%r12, %r11
	movq	32(%r13), %rax
	movq	32(%rax), %rbp
	movq	24(%r13), %rbx
	movq	24(%rax), %rax
	movq	16(%rbp), %r10
	subq	$16, %rsp
	.cfi_adjust_cfa_offset	16
	movq	72(%rsp), %rdi
	movq	64(%rsp), %rsi
	movq	56(%rsp), %rdx
	movq	48(%rsp), %rcx
	movq	40(%rsp), %r8
	movq	32(%rsp), %r9
	movq	24(%rsp), %r12
	movq	16(%rsp), %r13
	movq	%r11, 0(%rsp)
	movq	%rbp, 8(%rsp)
	call	*%r10
.L216:
	addq	$16, %rsp
	.cfi_adjust_cfa_offset	-16
	addq	$72, %rsp
	.cfi_adjust_cfa_offset	-72
	ret
	.cfi_adjust_cfa_offset	72
	.cfi_endproc
	.type	caml_curry11_2_app,@function
	.size	caml_curry11_2_app,.-caml_curry11_2_app
	.text
	.align	16
	.globl	caml_curry11_2
caml_curry11_2:
	.cfi_startproc
	subq	$8, %rsp
	.cfi_adjust_cfa_offset	8
.L217:
	movq	%rax, %rsi
.L218:	subq	$48, %r15
	movq	caml_young_limit@GOTPCREL(%rip), %rax
	cmpq	(%rax), %r15
	jb	.L219
	leaq	8(%r15), %rax
	movq	$5367, -8(%rax)
	movq	caml_curry11_3@GOTPCREL(%rip), %rdi
	movq	%rdi, (%rax)
	movq	$17, 8(%rax)
	movq	caml_curry11_3_app@GOTPCREL(%rip), %rdi
	movq	%rdi, 16(%rax)
	movq	%rsi, 24(%rax)
	movq	%rbx, 32(%rax)
	addq	$8, %rsp
	.cfi_adjust_cfa_offset	-8
	ret
	.cfi_adjust_cfa_offset	8
.L219:	call	caml_call_gc@PLT
.L220:	jmp	.L218
	.cfi_endproc
	.type	caml_curry11_2,@function
	.size	caml_curry11_2,.-caml_curry11_2
	.text
	.align	16
	.globl	caml_curry11_3_app
caml_curry11_3_app:
	.cfi_startproc
	subq	$56, %rsp
	.cfi_adjust_cfa_offset	56
.L221:
	movq	%rax, 32(%rsp)
	movq	%rbx, 24(%rsp)
	movq	%rdi, 16(%rsp)
	movq	%rsi, 8(%rsp)
	movq	%rdx, 0(%rsp)
	movq	%rcx, %r11
	movq	%r8, %r13
	movq	%r9, 40(%rsp)
	movq	32(%r12), %rbx
	movq	32(%rbx), %rax
	movq	32(%rax), %rbp
	movq	24(%r12), %rdi
	movq	24(%rbx), %rbx
	movq	24(%rax), %rax
	movq	16(%rbp), %r10
	subq	$16, %rsp
	.cfi_adjust_cfa_offset	16
	movq	48(%rsp), %rsi
	movq	40(%rsp), %rdx
	movq	32(%rsp), %rcx
	movq	24(%rsp), %r8
	movq	16(%rsp), %r9
	movq	%r11, %r12
	movq	56(%rsp), %r11
	movq	%r11, 0(%rsp)
	movq	%rbp, 8(%rsp)
	call	*%r10
.L222:
	addq	$16, %rsp
	.cfi_adjust_cfa_offset	-16
	addq	$56, %rsp
	.cfi_adjust_cfa_offset	-56
	ret
	.cfi_adjust_cfa_offset	56
	.cfi_endproc
	.type	caml_curry11_3_app,@function
	.size	caml_curry11_3_app,.-caml_curry11_3_app
	.text
	.align	16
	.globl	caml_curry11_3
caml_curry11_3:
	.cfi_startproc
	subq	$8, %rsp
	.cfi_adjust_cfa_offset	8
.L223:
	movq	%rax, %rsi
.L224:	subq	$48, %r15
	movq	caml_young_limit@GOTPCREL(%rip), %rax
	cmpq	(%rax), %r15
	jb	.L225
	leaq	8(%r15), %rax
	movq	$5367, -8(%rax)
	movq	caml_curry11_4@GOTPCREL(%rip), %rdi
	movq	%rdi, (%rax)
	movq	$15, 8(%rax)
	movq	caml_curry11_4_app@GOTPCREL(%rip), %rdi
	movq	%rdi, 16(%rax)
	movq	%rsi, 24(%rax)
	movq	%rbx, 32(%rax)
	addq	$8, %rsp
	.cfi_adjust_cfa_offset	-8
	ret
	.cfi_adjust_cfa_offset	8
.L225:	call	caml_call_gc@PLT
.L226:	jmp	.L224
	.cfi_endproc
	.type	caml_curry11_3,@function
	.size	caml_curry11_3,.-caml_curry11_3
	.text
	.align	16
	.globl	caml_curry11_4_app
caml_curry11_4_app:
	.cfi_startproc
	subq	$40, %rsp
	.cfi_adjust_cfa_offset	40
.L227:
	movq	%rax, 8(%rsp)
	movq	%rbx, 0(%rsp)
	movq	%rdi, %r13
	movq	%rsi, %r11
	movq	%rdx, %r12
	movq	%rcx, 16(%rsp)
	movq	%r8, 24(%rsp)
	movq	32(%r9), %rbx
	movq	32(%rbx), %rax
	movq	32(%rax), %rdx
	movq	32(%rdx), %rbp
	movq	24(%r9), %rsi
	movq	24(%rbx), %rdi
	movq	24(%rax), %rbx
	movq	24(%rdx), %rax
	movq	16(%rbp), %r10
	subq	$16, %rsp
	.cfi_adjust_cfa_offset	16
	movq	24(%rsp), %rdx
	movq	16(%rsp), %rcx
	movq	%r13, %r8
	movq	%r11, %r9
	movq	32(%rsp), %r13
	movq	40(%rsp), %r11
	movq	%r11, 0(%rsp)
	movq	%rbp, 8(%rsp)
	call	*%r10
.L228:
	addq	$16, %rsp
	.cfi_adjust_cfa_offset	-16
	addq	$40, %rsp
	.cfi_adjust_cfa_offset	-40
	ret
	.cfi_adjust_cfa_offset	40
	.cfi_endproc
	.type	caml_curry11_4_app,@function
	.size	caml_curry11_4_app,.-caml_curry11_4_app
	.text
	.align	16
	.globl	caml_curry11_4
caml_curry11_4:
	.cfi_startproc
	subq	$8, %rsp
	.cfi_adjust_cfa_offset	8
.L229:
	movq	%rax, %rsi
.L230:	subq	$48, %r15
	movq	caml_young_limit@GOTPCREL(%rip), %rax
	cmpq	(%rax), %r15
	jb	.L231
	leaq	8(%r15), %rax
	movq	$5367, -8(%rax)
	movq	caml_curry11_5@GOTPCREL(%rip), %rdi
	movq	%rdi, (%rax)
	movq	$13, 8(%rax)
	movq	caml_curry11_5_app@GOTPCREL(%rip), %rdi
	movq	%rdi, 16(%rax)
	movq	%rsi, 24(%rax)
	movq	%rbx, 32(%rax)
	addq	$8, %rsp
	.cfi_adjust_cfa_offset	-8
	ret
	.cfi_adjust_cfa_offset	8
.L231:	call	caml_call_gc@PLT
.L232:	jmp	.L230
	.cfi_endproc
	.type	caml_curry11_4,@function
	.size	caml_curry11_4,.-caml_curry11_4
	.text
	.align	16
	.globl	caml_curry11_5_app
caml_curry11_5_app:
	.cfi_startproc
	subq	$24, %rsp
	.cfi_adjust_cfa_offset	24
.L233:
	movq	%rax, %r12
	movq	%rbx, %r11
	movq	%rdi, %r9
	movq	%rsi, %r13
	movq	%rdx, 0(%rsp)
	movq	%rcx, 8(%rsp)
	movq	32(%r8), %rdi
	movq	32(%rdi), %rax
	movq	32(%rax), %rbx
	movq	32(%rbx), %rcx
	movq	32(%rcx), %rbp
	movq	24(%r8), %rdx
	movq	24(%rdi), %rsi
	movq	24(%rax), %rdi
	movq	24(%rbx), %rbx
	movq	24(%rcx), %rax
	movq	16(%rbp), %r10
	subq	$16, %rsp
	.cfi_adjust_cfa_offset	16
	movq	%r12, %rcx
	movq	%r11, %r8
	movq	%r13, %r12
	movq	16(%rsp), %r13
	movq	24(%rsp), %r11
	movq	%r11, 0(%rsp)
	movq	%rbp, 8(%rsp)
	call	*%r10
.L234:
	addq	$16, %rsp
	.cfi_adjust_cfa_offset	-16
	addq	$24, %rsp
	.cfi_adjust_cfa_offset	-24
	ret
	.cfi_adjust_cfa_offset	24
	.cfi_endproc
	.type	caml_curry11_5_app,@function
	.size	caml_curry11_5_app,.-caml_curry11_5_app
	.text
	.align	16
	.globl	caml_curry11_5
caml_curry11_5:
	.cfi_startproc
	subq	$8, %rsp
	.cfi_adjust_cfa_offset	8
.L235:
	movq	%rax, %rsi
.L236:	subq	$48, %r15
	movq	caml_young_limit@GOTPCREL(%rip), %rax
	cmpq	(%rax), %r15
	jb	.L237
	leaq	8(%r15), %rax
	movq	$5367, -8(%rax)
	movq	caml_curry11_6@GOTPCREL(%rip), %rdi
	movq	%rdi, (%rax)
	movq	$11, 8(%rax)
	movq	caml_curry11_6_app@GOTPCREL(%rip), %rdi
	movq	%rdi, 16(%rax)
	movq	%rsi, 24(%rax)
	movq	%rbx, 32(%rax)
	addq	$8, %rsp
	.cfi_adjust_cfa_offset	-8
	ret
	.cfi_adjust_cfa_offset	8
.L237:	call	caml_call_gc@PLT
.L238:	jmp	.L236
	.cfi_endproc
	.type	caml_curry11_5,@function
	.size	caml_curry11_5,.-caml_curry11_5
	.text
	.align	16
	.globl	caml_curry11_6_app
caml_curry11_6_app:
	.cfi_startproc
	subq	$8, %rsp
	.cfi_adjust_cfa_offset	8
.L239:
	movq	%rax, %r8
	movq	%rbx, %r9
	movq	%rdi, %r12
	movq	%rsi, %r13
	movq	%rdx, 0(%rsp)
	movq	32(%rcx), %rdi
	movq	32(%rdi), %rax
	movq	32(%rax), %rbx
	movq	32(%rbx), %rbp
	movq	32(%rbp), %r10
	movq	32(%r10), %r11
	movq	24(%rcx), %rcx
	movq	24(%rdi), %rdx
	movq	24(%rax), %rsi
	movq	24(%rbx), %rdi
	movq	24(%rbp), %rbx
	movq	24(%r10), %rax
	movq	16(%r11), %rbp
	subq	$16, %rsp
	.cfi_adjust_cfa_offset	16
	movq	16(%rsp), %r10
	movq	%r10, 0(%rsp)
	movq	%r11, 8(%rsp)
	call	*%rbp
.L240:
	addq	$16, %rsp
	.cfi_adjust_cfa_offset	-16
	addq	$8, %rsp
	.cfi_adjust_cfa_offset	-8
	ret
	.cfi_adjust_cfa_offset	8
	.cfi_endproc
	.type	caml_curry11_6_app,@function
	.size	caml_curry11_6_app,.-caml_curry11_6_app
	.text
	.align	16
	.globl	caml_curry11_6
caml_curry11_6:
	.cfi_startproc
	subq	$8, %rsp
	.cfi_adjust_cfa_offset	8
.L241:
	movq	%rax, %rsi
.L242:	subq	$48, %r15
	movq	caml_young_limit@GOTPCREL(%rip), %rax
	cmpq	(%rax), %r15
	jb	.L243
	leaq	8(%r15), %rax
	movq	$5367, -8(%rax)
	movq	caml_curry11_7@GOTPCREL(%rip), %rdi
	movq	%rdi, (%rax)
	movq	$9, 8(%rax)
	movq	caml_curry11_7_app@GOTPCREL(%rip), %rdi
	movq	%rdi, 16(%rax)
	movq	%rsi, 24(%rax)
	movq	%rbx, 32(%rax)
	addq	$8, %rsp
	.cfi_adjust_cfa_offset	-8
	ret
	.cfi_adjust_cfa_offset	8
.L243:	call	caml_call_gc@PLT
.L244:	jmp	.L242
	.cfi_endproc
	.type	caml_curry11_6,@function
	.size	caml_curry11_6,.-caml_curry11_6
	.text
	.align	16
	.globl	caml_curry11_7_app
caml_curry11_7_app:
	.cfi_startproc
	subq	$8, %rsp
	.cfi_adjust_cfa_offset	8
.L245:
	movq	%rax, %r9
	movq	%rbx, %r12
	movq	%rdi, %r13
	movq	%rsi, 0(%rsp)
	movq	32(%rdx), %rsi
	movq	32(%rsi), %rax
	movq	32(%rax), %rbx
	movq	32(%rbx), %rdi
	movq	32(%rdi), %rbp
	movq	32(%rbp), %r10
	movq	32(%r10), %r11
	movq	24(%rdx), %r8
	movq	24(%rsi), %rcx
	movq	24(%rax), %rdx
	movq	24(%rbx), %rsi
	movq	24(%rdi), %rdi
	movq	24(%rbp), %rbx
	movq	24(%r10), %rax
	movq	16(%r11), %rbp
	subq	$16, %rsp
	.cfi_adjust_cfa_offset	16
	movq	16(%rsp), %r10
	movq	%r10, 0(%rsp)
	movq	%r11, 8(%rsp)
	call	*%rbp
.L246:
	addq	$16, %rsp
	.cfi_adjust_cfa_offset	-16
	addq	$8, %rsp
	.cfi_adjust_cfa_offset	-8
	ret
	.cfi_adjust_cfa_offset	8
	.cfi_endproc
	.type	caml_curry11_7_app,@function
	.size	caml_curry11_7_app,.-caml_curry11_7_app
	.text
	.align	16
	.globl	caml_curry11_7
caml_curry11_7:
	.cfi_startproc
	subq	$8, %rsp
	.cfi_adjust_cfa_offset	8
.L247:
	movq	%rax, %rsi
.L248:	subq	$48, %r15
	movq	caml_young_limit@GOTPCREL(%rip), %rax
	cmpq	(%rax), %r15
	jb	.L249
	leaq	8(%r15), %rax
	movq	$5367, -8(%rax)
	movq	caml_curry11_8@GOTPCREL(%rip), %rdi
	movq	%rdi, (%rax)
	movq	$7, 8(%rax)
	movq	caml_curry11_8_app@GOTPCREL(%rip), %rdi
	movq	%rdi, 16(%rax)
	movq	%rsi, 24(%rax)
	movq	%rbx, 32(%rax)
	addq	$8, %rsp
	.cfi_adjust_cfa_offset	-8
	ret
	.cfi_adjust_cfa_offset	8
.L249:	call	caml_call_gc@PLT
.L250:	jmp	.L248
	.cfi_endproc
	.type	caml_curry11_7,@function
	.size	caml_curry11_7,.-caml_curry11_7
	.text
	.align	16
	.globl	caml_curry11_8_app
caml_curry11_8_app:
	.cfi_startproc
	subq	$24, %rsp
	.cfi_adjust_cfa_offset	24
.L251:
	movq	%rax, %r13
	movq	%rbx, 8(%rsp)
	movq	%rdi, 16(%rsp)
	movq	32(%rsi), %rax
	movq	32(%rax), %rbx
	movq	32(%rbx), %rdi
	movq	32(%rdi), %rbp
	movq	32(%rbp), %r10
	movq	32(%r10), %r11
	movq	32(%r11), %rdx
	movq	32(%rdx), %rcx
	movq	%rcx, 0(%rsp)
	movq	24(%rsi), %r12
	movq	24(%rax), %r9
	movq	24(%rbx), %r8
	movq	24(%rdi), %rcx
	movq	24(%rbp), %rsi
	movq	24(%r10), %rdi
	movq	24(%r11), %rbx
	movq	24(%rdx), %rax
	movq	0(%rsp), %rdx
	movq	16(%rdx), %rbp
	subq	$16, %rsp
	.cfi_adjust_cfa_offset	16
	movq	%rcx, %rdx
	movq	%r8, %rcx
	movq	%r9, %r8
	movq	%r12, %r9
	movq	%r13, %r12
	movq	24(%rsp), %r13
	movq	32(%rsp), %r10
	movq	%r10, 0(%rsp)
	movq	16(%rsp), %r10
	movq	%r10, 8(%rsp)
	call	*%rbp
.L252:
	addq	$16, %rsp
	.cfi_adjust_cfa_offset	-16
	addq	$24, %rsp
	.cfi_adjust_cfa_offset	-24
	ret
	.cfi_adjust_cfa_offset	24
	.cfi_endproc
	.type	caml_curry11_8_app,@function
	.size	caml_curry11_8_app,.-caml_curry11_8_app
	.text
	.align	16
	.globl	caml_curry11_8
caml_curry11_8:
	.cfi_startproc
	subq	$8, %rsp
	.cfi_adjust_cfa_offset	8
.L253:
	movq	%rax, %rsi
.L254:	subq	$48, %r15
	movq	caml_young_limit@GOTPCREL(%rip), %rax
	cmpq	(%rax), %r15
	jb	.L255
	leaq	8(%r15), %rax
	movq	$5367, -8(%rax)
	movq	caml_curry11_9@GOTPCREL(%rip), %rdi
	movq	%rdi, (%rax)
	movq	$5, 8(%rax)
	movq	caml_curry11_9_app@GOTPCREL(%rip), %rdi
	movq	%rdi, 16(%rax)
	movq	%rsi, 24(%rax)
	movq	%rbx, 32(%rax)
	addq	$8, %rsp
	.cfi_adjust_cfa_offset	-8
	ret
	.cfi_adjust_cfa_offset	8
.L255:	call	caml_call_gc@PLT
.L256:	jmp	.L254
	.cfi_endproc
	.type	caml_curry11_8,@function
	.size	caml_curry11_8,.-caml_curry11_8
	.text
	.align	16
	.globl	caml_curry11_9_app
caml_curry11_9_app:
	.cfi_startproc
	subq	$24, %rsp
	.cfi_adjust_cfa_offset	24
.L257:
	movq	%rax, 8(%rsp)
	movq	%rbx, 16(%rsp)
	movq	32(%rdi), %rax
	movq	32(%rax), %rbx
	movq	32(%rbx), %rsi
	movq	32(%rsi), %rdx
	movq	32(%rdx), %rbp
	movq	32(%rbp), %r10
	movq	32(%r10), %r11
	movq	32(%r11), %rcx
	movq	32(%rcx), %r8
	movq	%r8, 0(%rsp)
	movq	24(%rdi), %r13
	movq	24(%rax), %r12
	movq	24(%rbx), %r9
	movq	24(%rsi), %r8
	movq	24(%rdx), %rdx
	movq	24(%rbp), %rsi
	movq	24(%r10), %rdi
	movq	24(%r11), %rbx
	movq	24(%rcx), %rax
	movq	0(%rsp), %rcx
	movq	16(%rcx), %rbp
	subq	$16, %rsp
	.cfi_adjust_cfa_offset	16
	movq	%r8, %rcx
	movq	%r9, %r8
	movq	%r12, %r9
	movq	%r13, %r12
	movq	24(%rsp), %r13
	movq	32(%rsp), %r10
	movq	%r10, 0(%rsp)
	movq	16(%rsp), %r10
	movq	%r10, 8(%rsp)
	call	*%rbp
.L258:
	addq	$16, %rsp
	.cfi_adjust_cfa_offset	-16
	addq	$24, %rsp
	.cfi_adjust_cfa_offset	-24
	ret
	.cfi_adjust_cfa_offset	24
	.cfi_endproc
	.type	caml_curry11_9_app,@function
	.size	caml_curry11_9_app,.-caml_curry11_9_app
	.text
	.align	16
	.globl	caml_curry11_9
caml_curry11_9:
	.cfi_startproc
	subq	$8, %rsp
	.cfi_adjust_cfa_offset	8
.L259:
	movq	%rax, %rsi
.L260:	subq	$40, %r15
	movq	caml_young_limit@GOTPCREL(%rip), %rax
	cmpq	(%rax), %r15
	jb	.L261
	leaq	8(%r15), %rax
	movq	$4343, -8(%rax)
	movq	caml_curry11_10@GOTPCREL(%rip), %rdi
	movq	%rdi, (%rax)
	movq	$3, 8(%rax)
	movq	%rsi, 16(%rax)
	movq	%rbx, 24(%rax)
	addq	$8, %rsp
	.cfi_adjust_cfa_offset	-8
	ret
	.cfi_adjust_cfa_offset	8
.L261:	call	caml_call_gc@PLT
.L262:	jmp	.L260
	.cfi_endproc
	.type	caml_curry11_9,@function
	.size	caml_curry11_9,.-caml_curry11_9
	.text
	.align	16
	.globl	caml_curry11_10
caml_curry11_10:
	.cfi_startproc
	subq	$24, %rsp
	.cfi_adjust_cfa_offset	24
.L263:
	movq	%rax, 16(%rsp)
	movq	%rbx, %r9
	movq	24(%r9), %rax
	movq	32(%rax), %rdi
	movq	32(%rdi), %rsi
	movq	32(%rsi), %rdx
	movq	32(%rdx), %rbp
	movq	32(%rbp), %r10
	movq	32(%r10), %r11
	movq	32(%r11), %rbx
	movq	32(%rbx), %rcx
	movq	32(%rcx), %r8
	movq	%r8, 0(%rsp)
	movq	16(%r9), %r8
	movq	%r8, 8(%rsp)
	movq	24(%rax), %r13
	movq	24(%rdi), %r12
	movq	24(%rsi), %r9
	movq	24(%rdx), %r8
	movq	24(%rbp), %rdx
	movq	24(%r10), %rsi
	movq	24(%r11), %rdi
	movq	24(%rbx), %rbx
	movq	24(%rcx), %rax
	movq	0(%rsp), %rcx
	movq	16(%rcx), %rbp
	subq	$16, %rsp
	.cfi_adjust_cfa_offset	16
	movq	%r8, %rcx
	movq	%r9, %r8
	movq	%r12, %r9
	movq	%r13, %r12
	movq	24(%rsp), %r13
	movq	32(%rsp), %r10
	movq	%r10, 0(%rsp)
	movq	16(%rsp), %r10
	movq	%r10, 8(%rsp)
	call	*%rbp
.L264:
	addq	$16, %rsp
	.cfi_adjust_cfa_offset	-16
	addq	$24, %rsp
	.cfi_adjust_cfa_offset	-24
	ret
	.cfi_adjust_cfa_offset	24
	.cfi_endproc
	.type	caml_curry11_10,@function
	.size	caml_curry11_10,.-caml_curry11_10
	.text
	.align	16
	.globl	caml_curry9
caml_curry9:
	.cfi_startproc
	subq	$8, %rsp
	.cfi_adjust_cfa_offset	8
.L265:
	movq	%rax, %rsi
.L266:	subq	$48, %r15
	movq	caml_young_limit@GOTPCREL(%rip), %rax
	cmpq	(%rax), %r15
	jb	.L267
	leaq	8(%r15), %rax
	movq	$5367, -8(%rax)
	movq	caml_curry9_1@GOTPCREL(%rip), %rdi
	movq	%rdi, (%rax)
	movq	$17, 8(%rax)
	movq	caml_curry9_1_app@GOTPCREL(%rip), %rdi
	movq	%rdi, 16(%rax)
	movq	%rsi, 24(%rax)
	movq	%rbx, 32(%rax)
	addq	$8, %rsp
	.cfi_adjust_cfa_offset	-8
	ret
	.cfi_adjust_cfa_offset	8
.L267:	call	caml_call_gc@PLT
.L268:	jmp	.L266
	.cfi_endproc
	.type	caml_curry9,@function
	.size	caml_curry9,.-caml_curry9
	.text
	.align	16
	.globl	caml_curry9_1_app
caml_curry9_1_app:
	.cfi_startproc
	subq	$56, %rsp
	.cfi_adjust_cfa_offset	56
.L269:
	movq	%rax, 40(%rsp)
	movq	%rbx, 32(%rsp)
	movq	%rdi, 24(%rsp)
	movq	%rsi, 16(%rsp)
	movq	%rdx, 8(%rsp)
	movq	%rcx, 0(%rsp)
	movq	%r8, %r11
	movq	%r9, %r10
	movq	32(%r12), %r13
	movq	24(%r12), %rax
	movq	16(%r13), %rbp
	movq	40(%rsp), %rbx
	movq	32(%rsp), %rdi
	movq	24(%rsp), %rsi
	movq	16(%rsp), %rdx
	movq	8(%rsp), %rcx
	movq	0(%rsp), %r8
	movq	%r11, %r9
	movq	%r10, %r12
	addq	$56, %rsp
	.cfi_adjust_cfa_offset	-56
	jmp	*%rbp
	.cfi_adjust_cfa_offset	56
	.cfi_endproc
	.type	caml_curry9_1_app,@function
	.size	caml_curry9_1_app,.-caml_curry9_1_app
	.text
	.align	16
	.globl	caml_curry9_1
caml_curry9_1:
	.cfi_startproc
	subq	$8, %rsp
	.cfi_adjust_cfa_offset	8
.L270:
	movq	%rax, %rsi
.L271:	subq	$48, %r15
	movq	caml_young_limit@GOTPCREL(%rip), %rax
	cmpq	(%rax), %r15
	jb	.L272
	leaq	8(%r15), %rax
	movq	$5367, -8(%rax)
	movq	caml_curry9_2@GOTPCREL(%rip), %rdi
	movq	%rdi, (%rax)
	movq	$15, 8(%rax)
	movq	caml_curry9_2_app@GOTPCREL(%rip), %rdi
	movq	%rdi, 16(%rax)
	movq	%rsi, 24(%rax)
	movq	%rbx, 32(%rax)
	addq	$8, %rsp
	.cfi_adjust_cfa_offset	-8
	ret
	.cfi_adjust_cfa_offset	8
.L272:	call	caml_call_gc@PLT
.L273:	jmp	.L271
	.cfi_endproc
	.type	caml_curry9_1,@function
	.size	caml_curry9_1,.-caml_curry9_1
	.text
	.align	16
	.globl	caml_curry9_2_app
caml_curry9_2_app:
	.cfi_startproc
	subq	$40, %rsp
	.cfi_adjust_cfa_offset	40
.L274:
	movq	%rax, 24(%rsp)
	movq	%rbx, 16(%rsp)
	movq	%rdi, 8(%rsp)
	movq	%rsi, 0(%rsp)
	movq	%rdx, %r11
	movq	%rcx, %r10
	movq	%r8, %r12
	movq	32(%r9), %rax
	movq	32(%rax), %r13
	movq	24(%r9), %rbx
	movq	24(%rax), %rax
	movq	16(%r13), %rbp
	movq	24(%rsp), %rdi
	movq	16(%rsp), %rsi
	movq	8(%rsp), %rdx
	movq	0(%rsp), %rcx
	movq	%r11, %r8
	movq	%r10, %r9
	addq	$40, %rsp
	.cfi_adjust_cfa_offset	-40
	jmp	*%rbp
	.cfi_adjust_cfa_offset	40
	.cfi_endproc
	.type	caml_curry9_2_app,@function
	.size	caml_curry9_2_app,.-caml_curry9_2_app
	.text
	.align	16
	.globl	caml_curry9_2
caml_curry9_2:
	.cfi_startproc
	subq	$8, %rsp
	.cfi_adjust_cfa_offset	8
.L275:
	movq	%rax, %rsi
.L276:	subq	$48, %r15
	movq	caml_young_limit@GOTPCREL(%rip), %rax
	cmpq	(%rax), %r15
	jb	.L277
	leaq	8(%r15), %rax
	movq	$5367, -8(%rax)
	movq	caml_curry9_3@GOTPCREL(%rip), %rdi
	movq	%rdi, (%rax)
	movq	$13, 8(%rax)
	movq	caml_curry9_3_app@GOTPCREL(%rip), %rdi
	movq	%rdi, 16(%rax)
	movq	%rsi, 24(%rax)
	movq	%rbx, 32(%rax)
	addq	$8, %rsp
	.cfi_adjust_cfa_offset	-8
	ret
	.cfi_adjust_cfa_offset	8
.L277:	call	caml_call_gc@PLT
.L278:	jmp	.L276
	.cfi_endproc
	.type	caml_curry9_2,@function
	.size	caml_curry9_2,.-caml_curry9_2
	.text
	.align	16
	.globl	caml_curry9_3_app
caml_curry9_3_app:
	.cfi_startproc
	subq	$24, %rsp
	.cfi_adjust_cfa_offset	24
.L279:
	movq	%rax, 0(%rsp)
	movq	%rbx, %r12
	movq	%rdi, %r11
	movq	%rsi, %r10
	movq	%rdx, %r9
	movq	%rcx, 8(%rsp)
	movq	32(%r8), %rbx
	movq	32(%rbx), %rax
	movq	32(%rax), %r13
	movq	24(%r8), %rdi
	movq	24(%rbx), %rbx
	movq	24(%rax), %rax
	movq	16(%r13), %rbp
	movq	0(%rsp), %rsi
	movq	%r12, %rdx
	movq	%r11, %rcx
	movq	%r10, %r8
	movq	8(%rsp), %r12
	addq	$24, %rsp
	.cfi_adjust_cfa_offset	-24
	jmp	*%rbp
	.cfi_adjust_cfa_offset	24
	.cfi_endproc
	.type	caml_curry9_3_app,@function
	.size	caml_curry9_3_app,.-caml_curry9_3_app
	.text
	.align	16
	.globl	caml_curry9_3
caml_curry9_3:
	.cfi_startproc
	subq	$8, %rsp
	.cfi_adjust_cfa_offset	8
.L280:
	movq	%rax, %rsi
.L281:	subq	$48, %r15
	movq	caml_young_limit@GOTPCREL(%rip), %rax
	cmpq	(%rax), %r15
	jb	.L282
	leaq	8(%r15), %rax
	movq	$5367, -8(%rax)
	movq	caml_curry9_4@GOTPCREL(%rip), %rdi
	movq	%rdi, (%rax)
	movq	$11, 8(%rax)
	movq	caml_curry9_4_app@GOTPCREL(%rip), %rdi
	movq	%rdi, 16(%rax)
	movq	%rsi, 24(%rax)
	movq	%rbx, 32(%rax)
	addq	$8, %rsp
	.cfi_adjust_cfa_offset	-8
	ret
	.cfi_adjust_cfa_offset	8
.L282:	call	caml_call_gc@PLT
.L283:	jmp	.L281
	.cfi_endproc
	.type	caml_curry9_3,@function
	.size	caml_curry9_3,.-caml_curry9_3
	.text
	.align	16
	.globl	caml_curry9_4_app
caml_curry9_4_app:
	.cfi_startproc
.L284:
	movq	%rax, %r11
	movq	%rbx, %r10
	movq	%rdi, %r8
	movq	%rsi, %r9
	movq	%rdx, %r12
	movq	32(%rcx), %rdi
	movq	32(%rdi), %rbx
	movq	32(%rbx), %rax
	movq	32(%rax), %r13
	movq	24(%rcx), %rsi
	movq	24(%rdi), %rdi
	movq	24(%rbx), %rbx
	movq	24(%rax), %rax
	movq	16(%r13), %rbp
	movq	%r11, %rdx
	movq	%r10, %rcx
	jmp	*%rbp
	.cfi_endproc
	.type	caml_curry9_4_app,@function
	.size	caml_curry9_4_app,.-caml_curry9_4_app
	.text
	.align	16
	.globl	caml_curry9_4
caml_curry9_4:
	.cfi_startproc
	subq	$8, %rsp
	.cfi_adjust_cfa_offset	8
.L285:
	movq	%rax, %rsi
.L286:	subq	$48, %r15
	movq	caml_young_limit@GOTPCREL(%rip), %rax
	cmpq	(%rax), %r15
	jb	.L287
	leaq	8(%r15), %rax
	movq	$5367, -8(%rax)
	movq	caml_curry9_5@GOTPCREL(%rip), %rdi
	movq	%rdi, (%rax)
	movq	$9, 8(%rax)
	movq	caml_curry9_5_app@GOTPCREL(%rip), %rdi
	movq	%rdi, 16(%rax)
	movq	%rsi, 24(%rax)
	movq	%rbx, 32(%rax)
	addq	$8, %rsp
	.cfi_adjust_cfa_offset	-8
	ret
	.cfi_adjust_cfa_offset	8
.L287:	call	caml_call_gc@PLT
.L288:	jmp	.L286
	.cfi_endproc
	.type	caml_curry9_4,@function
	.size	caml_curry9_4,.-caml_curry9_4
	.text
	.align	16
	.globl	caml_curry9_5_app
caml_curry9_5_app:
	.cfi_startproc
.L289:
	movq	%rax, %rcx
	movq	%rbx, %r8
	movq	%rdi, %r9
	movq	%rsi, %r12
	movq	32(%rdx), %rsi
	movq	32(%rsi), %rdi
	movq	32(%rdi), %rbx
	movq	32(%rbx), %rax
	movq	32(%rax), %r13
	movq	24(%rdx), %rdx
	movq	24(%rsi), %rsi
	movq	24(%rdi), %rdi
	movq	24(%rbx), %rbx
	movq	24(%rax), %rax
	movq	16(%r13), %rbp
	jmp	*%rbp
	.cfi_endproc
	.type	caml_curry9_5_app,@function
	.size	caml_curry9_5_app,.-caml_curry9_5_app
	.text
	.align	16
	.globl	caml_curry9_5
caml_curry9_5:
	.cfi_startproc
	subq	$8, %rsp
	.cfi_adjust_cfa_offset	8
.L290:
	movq	%rax, %rsi
.L291:	subq	$48, %r15
	movq	caml_young_limit@GOTPCREL(%rip), %rax
	cmpq	(%rax), %r15
	jb	.L292
	leaq	8(%r15), %rax
	movq	$5367, -8(%rax)
	movq	caml_curry9_6@GOTPCREL(%rip), %rdi
	movq	%rdi, (%rax)
	movq	$7, 8(%rax)
	movq	caml_curry9_6_app@GOTPCREL(%rip), %rdi
	movq	%rdi, 16(%rax)
	movq	%rsi, 24(%rax)
	movq	%rbx, 32(%rax)
	addq	$8, %rsp
	.cfi_adjust_cfa_offset	-8
	ret
	.cfi_adjust_cfa_offset	8
.L292:	call	caml_call_gc@PLT
.L293:	jmp	.L291
	.cfi_endproc
	.type	caml_curry9_5,@function
	.size	caml_curry9_5,.-caml_curry9_5
	.text
	.align	16
	.globl	caml_curry9_6_app
caml_curry9_6_app:
	.cfi_startproc
.L294:
	movq	%rax, %r8
	movq	%rbx, %r9
	movq	%rdi, %r12
	movq	32(%rsi), %rdx
	movq	32(%rdx), %rdi
	movq	32(%rdi), %rbx
	movq	32(%rbx), %rax
	movq	32(%rax), %rbp
	movq	32(%rbp), %r13
	movq	24(%rsi), %rcx
	movq	24(%rdx), %rdx
	movq	24(%rdi), %rsi
	movq	24(%rbx), %rdi
	movq	24(%rax), %rbx
	movq	24(%rbp), %rax
	movq	16(%r13), %rbp
	jmp	*%rbp
	.cfi_endproc
	.type	caml_curry9_6_app,@function
	.size	caml_curry9_6_app,.-caml_curry9_6_app
	.text
	.align	16
	.globl	caml_curry9_6
caml_curry9_6:
	.cfi_startproc
	subq	$8, %rsp
	.cfi_adjust_cfa_offset	8
.L295:
	movq	%rax, %rsi
.L296:	subq	$48, %r15
	movq	caml_young_limit@GOTPCREL(%rip), %rax
	cmpq	(%rax), %r15
	jb	.L297
	leaq	8(%r15), %rax
	movq	$5367, -8(%rax)
	movq	caml_curry9_7@GOTPCREL(%rip), %rdi
	movq	%rdi, (%rax)
	movq	$5, 8(%rax)
	movq	caml_curry9_7_app@GOTPCREL(%rip), %rdi
	movq	%rdi, 16(%rax)
	movq	%rsi, 24(%rax)
	movq	%rbx, 32(%rax)
	addq	$8, %rsp
	.cfi_adjust_cfa_offset	-8
	ret
	.cfi_adjust_cfa_offset	8
.L297:	call	caml_call_gc@PLT
.L298:	jmp	.L296
	.cfi_endproc
	.type	caml_curry9_6,@function
	.size	caml_curry9_6,.-caml_curry9_6
	.text
	.align	16
	.globl	caml_curry9_7_app
caml_curry9_7_app:
	.cfi_startproc
.L299:
	movq	%rax, %r9
	movq	%rbx, %r12
	movq	32(%rdi), %rcx
	movq	32(%rcx), %rdx
	movq	32(%rdx), %rsi
	movq	32(%rsi), %rax
	movq	32(%rax), %rbx
	movq	32(%rbx), %rbp
	movq	32(%rbp), %r13
	movq	24(%rdi), %r8
	movq	24(%rcx), %rcx
	movq	24(%rdx), %rdx
	movq	24(%rsi), %rsi
	movq	24(%rax), %rdi
	movq	24(%rbx), %rbx
	movq	24(%rbp), %rax
	movq	16(%r13), %rbp
	jmp	*%rbp
	.cfi_endproc
	.type	caml_curry9_7_app,@function
	.size	caml_curry9_7_app,.-caml_curry9_7_app
	.text
	.align	16
	.globl	caml_curry9_7
caml_curry9_7:
	.cfi_startproc
	subq	$8, %rsp
	.cfi_adjust_cfa_offset	8
.L300:
	movq	%rax, %rsi
.L301:	subq	$40, %r15
	movq	caml_young_limit@GOTPCREL(%rip), %rax
	cmpq	(%rax), %r15
	jb	.L302
	leaq	8(%r15), %rax
	movq	$4343, -8(%rax)
	movq	caml_curry9_8@GOTPCREL(%rip), %rdi
	movq	%rdi, (%rax)
	movq	$3, 8(%rax)
	movq	%rsi, 16(%rax)
	movq	%rbx, 24(%rax)
	addq	$8, %rsp
	.cfi_adjust_cfa_offset	-8
	ret
	.cfi_adjust_cfa_offset	8
.L302:	call	caml_call_gc@PLT
.L303:	jmp	.L301
	.cfi_endproc
	.type	caml_curry9_7,@function
	.size	caml_curry9_7,.-caml_curry9_7
	.text
	.align	16
	.globl	caml_curry9_8
caml_curry9_8:
	.cfi_startproc
.L304:
	movq	%rax, %r12
	movq	24(%rbx), %rcx
	movq	32(%rcx), %rdx
	movq	32(%rdx), %rsi
	movq	32(%rsi), %rax
	movq	32(%rax), %rdi
	movq	32(%rdi), %rbp
	movq	32(%rbp), %r10
	movq	32(%r10), %r13
	movq	16(%rbx), %r9
	movq	24(%rcx), %r8
	movq	24(%rdx), %rcx
	movq	24(%rsi), %rdx
	movq	24(%rax), %rsi
	movq	24(%rdi), %rdi
	movq	24(%rbp), %rbx
	movq	24(%r10), %rax
	movq	16(%r13), %rbp
	jmp	*%rbp
	.cfi_endproc
	.type	caml_curry9_8,@function
	.size	caml_curry9_8,.-caml_curry9_8
	.text
	.align	16
	.globl	caml_curry8
caml_curry8:
	.cfi_startproc
	subq	$8, %rsp
	.cfi_adjust_cfa_offset	8
.L305:
	movq	%rax, %rsi
.L306:	subq	$48, %r15
	movq	caml_young_limit@GOTPCREL(%rip), %rax
	cmpq	(%rax), %r15
	jb	.L307
	leaq	8(%r15), %rax
	movq	$5367, -8(%rax)
	movq	caml_curry8_1@GOTPCREL(%rip), %rdi
	movq	%rdi, (%rax)
	movq	$15, 8(%rax)
	movq	caml_curry8_1_app@GOTPCREL(%rip), %rdi
	movq	%rdi, 16(%rax)
	movq	%rsi, 24(%rax)
	movq	%rbx, 32(%rax)
	addq	$8, %rsp
	.cfi_adjust_cfa_offset	-8
	ret
	.cfi_adjust_cfa_offset	8
.L307:	call	caml_call_gc@PLT
.L308:	jmp	.L306
	.cfi_endproc
	.type	caml_curry8,@function
	.size	caml_curry8,.-caml_curry8
	.text
	.align	16
	.globl	caml_curry8_1_app
caml_curry8_1_app:
	.cfi_startproc
	subq	$40, %rsp
	.cfi_adjust_cfa_offset	40
.L309:
	movq	%rax, 24(%rsp)
	movq	%rbx, 16(%rsp)
	movq	%rdi, 8(%rsp)
	movq	%rsi, 0(%rsp)
	movq	%rdx, %r11
	movq	%rcx, %r10
	movq	%r8, %rbp
	movq	32(%r9), %r12
	movq	24(%r9), %rax
	movq	16(%r12), %r13
	movq	24(%rsp), %rbx
	movq	16(%rsp), %rdi
	movq	8(%rsp), %rsi
	movq	0(%rsp), %rdx
	movq	%r11, %rcx
	movq	%r10, %r8
	movq	%rbp, %r9
	addq	$40, %rsp
	.cfi_adjust_cfa_offset	-40
	jmp	*%r13
	.cfi_adjust_cfa_offset	40
	.cfi_endproc
	.type	caml_curry8_1_app,@function
	.size	caml_curry8_1_app,.-caml_curry8_1_app
	.text
	.align	16
	.globl	caml_curry8_1
caml_curry8_1:
	.cfi_startproc
	subq	$8, %rsp
	.cfi_adjust_cfa_offset	8
.L310:
	movq	%rax, %rsi
.L311:	subq	$48, %r15
	movq	caml_young_limit@GOTPCREL(%rip), %rax
	cmpq	(%rax), %r15
	jb	.L312
	leaq	8(%r15), %rax
	movq	$5367, -8(%rax)
	movq	caml_curry8_2@GOTPCREL(%rip), %rdi
	movq	%rdi, (%rax)
	movq	$13, 8(%rax)
	movq	caml_curry8_2_app@GOTPCREL(%rip), %rdi
	movq	%rdi, 16(%rax)
	movq	%rsi, 24(%rax)
	movq	%rbx, 32(%rax)
	addq	$8, %rsp
	.cfi_adjust_cfa_offset	-8
	ret
	.cfi_adjust_cfa_offset	8
.L312:	call	caml_call_gc@PLT
.L313:	jmp	.L311
	.cfi_endproc
	.type	caml_curry8_1,@function
	.size	caml_curry8_1,.-caml_curry8_1
	.text
	.align	16
	.globl	caml_curry8_2_app
caml_curry8_2_app:
	.cfi_startproc
	subq	$24, %rsp
	.cfi_adjust_cfa_offset	24
.L314:
	movq	%rax, 8(%rsp)
	movq	%rbx, 0(%rsp)
	movq	%rdi, %r11
	movq	%rsi, %r10
	movq	%rdx, %rbp
	movq	%rcx, %r9
	movq	32(%r8), %rax
	movq	32(%rax), %r12
	movq	24(%r8), %rbx
	movq	24(%rax), %rax
	movq	16(%r12), %r13
	movq	8(%rsp), %rdi
	movq	0(%rsp), %rsi
	movq	%r11, %rdx
	movq	%r10, %rcx
	movq	%rbp, %r8
	addq	$24, %rsp
	.cfi_adjust_cfa_offset	-24
	jmp	*%r13
	.cfi_adjust_cfa_offset	24
	.cfi_endproc
	.type	caml_curry8_2_app,@function
	.size	caml_curry8_2_app,.-caml_curry8_2_app
	.text
	.align	16
	.globl	caml_curry8_2
caml_curry8_2:
	.cfi_startproc
	subq	$8, %rsp
	.cfi_adjust_cfa_offset	8
.L315:
	movq	%rax, %rsi
.L316:	subq	$48, %r15
	movq	caml_young_limit@GOTPCREL(%rip), %rax
	cmpq	(%rax), %r15
	jb	.L317
	leaq	8(%r15), %rax
	movq	$5367, -8(%rax)
	movq	caml_curry8_3@GOTPCREL(%rip), %rdi
	movq	%rdi, (%rax)
	movq	$11, 8(%rax)
	movq	caml_curry8_3_app@GOTPCREL(%rip), %rdi
	movq	%rdi, 16(%rax)
	movq	%rsi, 24(%rax)
	movq	%rbx, 32(%rax)
	addq	$8, %rsp
	.cfi_adjust_cfa_offset	-8
	ret
	.cfi_adjust_cfa_offset	8
.L317:	call	caml_call_gc@PLT
.L318:	jmp	.L316
	.cfi_endproc
	.type	caml_curry8_2,@function
	.size	caml_curry8_2,.-caml_curry8_2
	.text
	.align	16
	.globl	caml_curry8_3_app
caml_curry8_3_app:
	.cfi_startproc
.L319:
	movq	%rax, %r11
	movq	%rbx, %r10
	movq	%rdi, %rbp
	movq	%rsi, %r8
	movq	%rdx, %r9
	movq	32(%rcx), %rbx
	movq	32(%rbx), %rax
	movq	32(%rax), %r12
	movq	24(%rcx), %rdi
	movq	24(%rbx), %rbx
	movq	24(%rax), %rax
	movq	16(%r12), %r13
	movq	%r11, %rsi
	movq	%r10, %rdx
	movq	%rbp, %rcx
	jmp	*%r13
	.cfi_endproc
	.type	caml_curry8_3_app,@function
	.size	caml_curry8_3_app,.-caml_curry8_3_app
	.text
	.align	16
	.globl	caml_curry8_3
caml_curry8_3:
	.cfi_startproc
	subq	$8, %rsp
	.cfi_adjust_cfa_offset	8
.L320:
	movq	%rax, %rsi
.L321:	subq	$48, %r15
	movq	caml_young_limit@GOTPCREL(%rip), %rax
	cmpq	(%rax), %r15
	jb	.L322
	leaq	8(%r15), %rax
	movq	$5367, -8(%rax)
	movq	caml_curry8_4@GOTPCREL(%rip), %rdi
	movq	%rdi, (%rax)
	movq	$9, 8(%rax)
	movq	caml_curry8_4_app@GOTPCREL(%rip), %rdi
	movq	%rdi, 16(%rax)
	movq	%rsi, 24(%rax)
	movq	%rbx, 32(%rax)
	addq	$8, %rsp
	.cfi_adjust_cfa_offset	-8
	ret
	.cfi_adjust_cfa_offset	8
.L322:	call	caml_call_gc@PLT
.L323:	jmp	.L321
	.cfi_endproc
	.type	caml_curry8_3,@function
	.size	caml_curry8_3,.-caml_curry8_3
	.text
	.align	16
	.globl	caml_curry8_4_app
caml_curry8_4_app:
	.cfi_startproc
.L324:
	movq	%rax, %rbp
	movq	%rbx, %rcx
	movq	%rdi, %r8
	movq	%rsi, %r9
	movq	32(%rdx), %rdi
	movq	32(%rdi), %rbx
	movq	32(%rbx), %rax
	movq	32(%rax), %r12
	movq	24(%rdx), %rsi
	movq	24(%rdi), %rdi
	movq	24(%rbx), %rbx
	movq	24(%rax), %rax
	movq	16(%r12), %r13
	movq	%rbp, %rdx
	jmp	*%r13
	.cfi_endproc
	.type	caml_curry8_4_app,@function
	.size	caml_curry8_4_app,.-caml_curry8_4_app
	.text
	.align	16
	.globl	caml_curry8_4
caml_curry8_4:
	.cfi_startproc
	subq	$8, %rsp
	.cfi_adjust_cfa_offset	8
.L325:
	movq	%rax, %rsi
.L326:	subq	$48, %r15
	movq	caml_young_limit@GOTPCREL(%rip), %rax
	cmpq	(%rax), %r15
	jb	.L327
	leaq	8(%r15), %rax
	movq	$5367, -8(%rax)
	movq	caml_curry8_5@GOTPCREL(%rip), %rdi
	movq	%rdi, (%rax)
	movq	$7, 8(%rax)
	movq	caml_curry8_5_app@GOTPCREL(%rip), %rdi
	movq	%rdi, 16(%rax)
	movq	%rsi, 24(%rax)
	movq	%rbx, 32(%rax)
	addq	$8, %rsp
	.cfi_adjust_cfa_offset	-8
	ret
	.cfi_adjust_cfa_offset	8
.L327:	call	caml_call_gc@PLT
.L328:	jmp	.L326
	.cfi_endproc
	.type	caml_curry8_4,@function
	.size	caml_curry8_4,.-caml_curry8_4
	.text
	.align	16
	.globl	caml_curry8_5_app
caml_curry8_5_app:
	.cfi_startproc
.L329:
	movq	%rax, %rcx
	movq	%rbx, %r8
	movq	%rdi, %r9
	movq	32(%rsi), %r13
	movq	32(%r13), %rdi
	movq	32(%rdi), %rbx
	movq	32(%rbx), %rax
	movq	32(%rax), %r12
	movq	24(%rsi), %rdx
	movq	24(%r13), %rsi
	movq	24(%rdi), %rdi
	movq	24(%rbx), %rbx
	movq	24(%rax), %rax
	movq	16(%r12), %r13
	jmp	*%r13
	.cfi_endproc
	.type	caml_curry8_5_app,@function
	.size	caml_curry8_5_app,.-caml_curry8_5_app
	.text
	.align	16
	.globl	caml_curry8_5
caml_curry8_5:
	.cfi_startproc
	subq	$8, %rsp
	.cfi_adjust_cfa_offset	8
.L330:
	movq	%rax, %rsi
.L331:	subq	$48, %r15
	movq	caml_young_limit@GOTPCREL(%rip), %rax
	cmpq	(%rax), %r15
	jb	.L332
	leaq	8(%r15), %rax
	movq	$5367, -8(%rax)
	movq	caml_curry8_6@GOTPCREL(%rip), %rdi
	movq	%rdi, (%rax)
	movq	$5, 8(%rax)
	movq	caml_curry8_6_app@GOTPCREL(%rip), %rdi
	movq	%rdi, 16(%rax)
	movq	%rsi, 24(%rax)
	movq	%rbx, 32(%rax)
	addq	$8, %rsp
	.cfi_adjust_cfa_offset	-8
	ret
	.cfi_adjust_cfa_offset	8
.L332:	call	caml_call_gc@PLT
.L333:	jmp	.L331
	.cfi_endproc
	.type	caml_curry8_5,@function
	.size	caml_curry8_5,.-caml_curry8_5
	.text
	.align	16
	.globl	caml_curry8_6_app
caml_curry8_6_app:
	.cfi_startproc
.L334:
	movq	%rax, %r8
	movq	%rbx, %r9
	movq	32(%rdi), %rdx
	movq	32(%rdx), %rsi
	movq	32(%rsi), %r13
	movq	32(%r13), %rbx
	movq	32(%rbx), %rax
	movq	32(%rax), %r12
	movq	24(%rdi), %rcx
	movq	24(%rdx), %rdx
	movq	24(%rsi), %rsi
	movq	24(%r13), %rdi
	movq	24(%rbx), %rbx
	movq	24(%rax), %rax
	movq	16(%r12), %r13
	jmp	*%r13
	.cfi_endproc
	.type	caml_curry8_6_app,@function
	.size	caml_curry8_6_app,.-caml_curry8_6_app
	.text
	.align	16
	.globl	caml_curry8_6
caml_curry8_6:
	.cfi_startproc
	subq	$8, %rsp
	.cfi_adjust_cfa_offset	8
.L335:
	movq	%rax, %rsi
.L336:	subq	$40, %r15
	movq	caml_young_limit@GOTPCREL(%rip), %rax
	cmpq	(%rax), %r15
	jb	.L337
	leaq	8(%r15), %rax
	movq	$4343, -8(%rax)
	movq	caml_curry8_7@GOTPCREL(%rip), %rdi
	movq	%rdi, (%rax)
	movq	$3, 8(%rax)
	movq	%rsi, 16(%rax)
	movq	%rbx, 24(%rax)
	addq	$8, %rsp
	.cfi_adjust_cfa_offset	-8
	ret
	.cfi_adjust_cfa_offset	8
.L337:	call	caml_call_gc@PLT
.L338:	jmp	.L336
	.cfi_endproc
	.type	caml_curry8_6,@function
	.size	caml_curry8_6,.-caml_curry8_6
	.text
	.align	16
	.globl	caml_curry8_7
caml_curry8_7:
	.cfi_startproc
.L339:
	movq	%rax, %r9
	movq	24(%rbx), %rcx
	movq	32(%rcx), %rdx
	movq	32(%rdx), %rsi
	movq	32(%rsi), %rdi
	movq	32(%rdi), %rax
	movq	32(%rax), %r13
	movq	32(%r13), %r12
	movq	16(%rbx), %r8
	movq	24(%rcx), %rcx
	movq	24(%rdx), %rdx
	movq	24(%rsi), %rsi
	movq	24(%rdi), %rdi
	movq	24(%rax), %rbx
	movq	24(%r13), %rax
	movq	16(%r12), %r13
	jmp	*%r13
	.cfi_endproc
	.type	caml_curry8_7,@function
	.size	caml_curry8_7,.-caml_curry8_7
	.text
	.align	16
	.globl	caml_curry7
caml_curry7:
	.cfi_startproc
	subq	$8, %rsp
	.cfi_adjust_cfa_offset	8
.L340:
	movq	%rax, %rsi
.L341:	subq	$48, %r15
	movq	caml_young_limit@GOTPCREL(%rip), %rax
	cmpq	(%rax), %r15
	jb	.L342
	leaq	8(%r15), %rax
	movq	$5367, -8(%rax)
	movq	caml_curry7_1@GOTPCREL(%rip), %rdi
	movq	%rdi, (%rax)
	movq	$13, 8(%rax)
	movq	caml_curry7_1_app@GOTPCREL(%rip), %rdi
	movq	%rdi, 16(%rax)
	movq	%rsi, 24(%rax)
	movq	%rbx, 32(%rax)
	addq	$8, %rsp
	.cfi_adjust_cfa_offset	-8
	ret
	.cfi_adjust_cfa_offset	8
.L342:	call	caml_call_gc@PLT
.L343:	jmp	.L341
	.cfi_endproc
	.type	caml_curry7,@function
	.size	caml_curry7,.-caml_curry7
	.text
	.align	16
	.globl	caml_curry7_1_app
caml_curry7_1_app:
	.cfi_startproc
	subq	$24, %rsp
	.cfi_adjust_cfa_offset	24
.L344:
	movq	%rax, 8(%rsp)
	movq	%rbx, 0(%rsp)
	movq	%rdi, %r11
	movq	%rsi, %r10
	movq	%rdx, %rbp
	movq	%rcx, %r13
	movq	32(%r8), %r9
	movq	24(%r8), %rax
	movq	16(%r9), %r12
	movq	8(%rsp), %rbx
	movq	0(%rsp), %rdi
	movq	%r11, %rsi
	movq	%r10, %rdx
	movq	%rbp, %rcx
	movq	%r13, %r8
	addq	$24, %rsp
	.cfi_adjust_cfa_offset	-24
	jmp	*%r12
	.cfi_adjust_cfa_offset	24
	.cfi_endproc
	.type	caml_curry7_1_app,@function
	.size	caml_curry7_1_app,.-caml_curry7_1_app
	.text
	.align	16
	.globl	caml_curry7_1
caml_curry7_1:
	.cfi_startproc
	subq	$8, %rsp
	.cfi_adjust_cfa_offset	8
.L345:
	movq	%rax, %rsi
.L346:	subq	$48, %r15
	movq	caml_young_limit@GOTPCREL(%rip), %rax
	cmpq	(%rax), %r15
	jb	.L347
	leaq	8(%r15), %rax
	movq	$5367, -8(%rax)
	movq	caml_curry7_2@GOTPCREL(%rip), %rdi
	movq	%rdi, (%rax)
	movq	$11, 8(%rax)
	movq	caml_curry7_2_app@GOTPCREL(%rip), %rdi
	movq	%rdi, 16(%rax)
	movq	%rsi, 24(%rax)
	movq	%rbx, 32(%rax)
	addq	$8, %rsp
	.cfi_adjust_cfa_offset	-8
	ret
	.cfi_adjust_cfa_offset	8
.L347:	call	caml_call_gc@PLT
.L348:	jmp	.L346
	.cfi_endproc
	.type	caml_curry7_1,@function
	.size	caml_curry7_1,.-caml_curry7_1
	.text
	.align	16
	.globl	caml_curry7_2_app
caml_curry7_2_app:
	.cfi_startproc
.L349:
	movq	%rax, %r11
	movq	%rbx, %r10
	movq	%rdi, %rbp
	movq	%rsi, %r13
	movq	%rdx, %r8
	movq	32(%rcx), %rax
	movq	32(%rax), %r9
	movq	24(%rcx), %rbx
	movq	24(%rax), %rax
	movq	16(%r9), %r12
	movq	%r11, %rdi
	movq	%r10, %rsi
	movq	%rbp, %rdx
	movq	%r13, %rcx
	jmp	*%r12
	.cfi_endproc
	.type	caml_curry7_2_app,@function
	.size	caml_curry7_2_app,.-caml_curry7_2_app
	.text
	.align	16
	.globl	caml_curry7_2
caml_curry7_2:
	.cfi_startproc
	subq	$8, %rsp
	.cfi_adjust_cfa_offset	8
.L350:
	movq	%rax, %rsi
.L351:	subq	$48, %r15
	movq	caml_young_limit@GOTPCREL(%rip), %rax
	cmpq	(%rax), %r15
	jb	.L352
	leaq	8(%r15), %rax
	movq	$5367, -8(%rax)
	movq	caml_curry7_3@GOTPCREL(%rip), %rdi
	movq	%rdi, (%rax)
	movq	$9, 8(%rax)
	movq	caml_curry7_3_app@GOTPCREL(%rip), %rdi
	movq	%rdi, 16(%rax)
	movq	%rsi, 24(%rax)
	movq	%rbx, 32(%rax)
	addq	$8, %rsp
	.cfi_adjust_cfa_offset	-8
	ret
	.cfi_adjust_cfa_offset	8
.L352:	call	caml_call_gc@PLT
.L353:	jmp	.L351
	.cfi_endproc
	.type	caml_curry7_2,@function
	.size	caml_curry7_2,.-caml_curry7_2
	.text
	.align	16
	.globl	caml_curry7_3_app
caml_curry7_3_app:
	.cfi_startproc
.L354:
	movq	%rax, %rbp
	movq	%rbx, %r13
	movq	%rdi, %rcx
	movq	%rsi, %r8
	movq	32(%rdx), %rbx
	movq	32(%rbx), %rax
	movq	32(%rax), %r9
	movq	24(%rdx), %rdi
	movq	24(%rbx), %rbx
	movq	24(%rax), %rax
	movq	16(%r9), %r12
	movq	%rbp, %rsi
	movq	%r13, %rdx
	jmp	*%r12
	.cfi_endproc
	.type	caml_curry7_3_app,@function
	.size	caml_curry7_3_app,.-caml_curry7_3_app
	.text
	.align	16
	.globl	caml_curry7_3
caml_curry7_3:
	.cfi_startproc
	subq	$8, %rsp
	.cfi_adjust_cfa_offset	8
.L355:
	movq	%rax, %rsi
.L356:	subq	$48, %r15
	movq	caml_young_limit@GOTPCREL(%rip), %rax
	cmpq	(%rax), %r15
	jb	.L357
	leaq	8(%r15), %rax
	movq	$5367, -8(%rax)
	movq	caml_curry7_4@GOTPCREL(%rip), %rdi
	movq	%rdi, (%rax)
	movq	$7, 8(%rax)
	movq	caml_curry7_4_app@GOTPCREL(%rip), %rdi
	movq	%rdi, 16(%rax)
	movq	%rsi, 24(%rax)
	movq	%rbx, 32(%rax)
	addq	$8, %rsp
	.cfi_adjust_cfa_offset	-8
	ret
	.cfi_adjust_cfa_offset	8
.L357:	call	caml_call_gc@PLT
.L358:	jmp	.L356
	.cfi_endproc
	.type	caml_curry7_3,@function
	.size	caml_curry7_3,.-caml_curry7_3
	.text
	.align	16
	.globl	caml_curry7_4_app
caml_curry7_4_app:
	.cfi_startproc
.L359:
	movq	%rax, %rdx
	movq	%rbx, %rcx
	movq	%rdi, %r8
	movq	32(%rsi), %rdi
	movq	32(%rdi), %rbx
	movq	32(%rbx), %rax
	movq	32(%rax), %r9
	movq	24(%rsi), %rsi
	movq	24(%rdi), %rdi
	movq	24(%rbx), %rbx
	movq	24(%rax), %rax
	movq	16(%r9), %r12
	jmp	*%r12
	.cfi_endproc
	.type	caml_curry7_4_app,@function
	.size	caml_curry7_4_app,.-caml_curry7_4_app
	.text
	.align	16
	.globl	caml_curry7_4
caml_curry7_4:
	.cfi_startproc
	subq	$8, %rsp
	.cfi_adjust_cfa_offset	8
.L360:
	movq	%rax, %rsi
.L361:	subq	$48, %r15
	movq	caml_young_limit@GOTPCREL(%rip), %rax
	cmpq	(%rax), %r15
	jb	.L362
	leaq	8(%r15), %rax
	movq	$5367, -8(%rax)
	movq	caml_curry7_5@GOTPCREL(%rip), %rdi
	movq	%rdi, (%rax)
	movq	$5, 8(%rax)
	movq	caml_curry7_5_app@GOTPCREL(%rip), %rdi
	movq	%rdi, 16(%rax)
	movq	%rsi, 24(%rax)
	movq	%rbx, 32(%rax)
	addq	$8, %rsp
	.cfi_adjust_cfa_offset	-8
	ret
	.cfi_adjust_cfa_offset	8
.L362:	call	caml_call_gc@PLT
.L363:	jmp	.L361
	.cfi_endproc
	.type	caml_curry7_4,@function
	.size	caml_curry7_4,.-caml_curry7_4
	.text
	.align	16
	.globl	caml_curry7_5_app
caml_curry7_5_app:
	.cfi_startproc
.L364:
	movq	%rax, %rcx
	movq	%rbx, %r8
	movq	32(%rdi), %rsi
	movq	32(%rsi), %r12
	movq	32(%r12), %rbx
	movq	32(%rbx), %rax
	movq	32(%rax), %r9
	movq	24(%rdi), %rdx
	movq	24(%rsi), %rsi
	movq	24(%r12), %rdi
	movq	24(%rbx), %rbx
	movq	24(%rax), %rax
	movq	16(%r9), %r12
	jmp	*%r12
	.cfi_endproc
	.type	caml_curry7_5_app,@function
	.size	caml_curry7_5_app,.-caml_curry7_5_app
	.text
	.align	16
	.globl	caml_curry7_5
caml_curry7_5:
	.cfi_startproc
	subq	$8, %rsp
	.cfi_adjust_cfa_offset	8
.L365:
	movq	%rax, %rsi
.L366:	subq	$40, %r15
	movq	caml_young_limit@GOTPCREL(%rip), %rax
	cmpq	(%rax), %r15
	jb	.L367
	leaq	8(%r15), %rax
	movq	$4343, -8(%rax)
	movq	caml_curry7_6@GOTPCREL(%rip), %rdi
	movq	%rdi, (%rax)
	movq	$3, 8(%rax)
	movq	%rsi, 16(%rax)
	movq	%rbx, 24(%rax)
	addq	$8, %rsp
	.cfi_adjust_cfa_offset	-8
	ret
	.cfi_adjust_cfa_offset	8
.L367:	call	caml_call_gc@PLT
.L368:	jmp	.L366
	.cfi_endproc
	.type	caml_curry7_5,@function
	.size	caml_curry7_5,.-caml_curry7_5
	.text
	.align	16
	.globl	caml_curry7_6
caml_curry7_6:
	.cfi_startproc
.L369:
	movq	%rax, %r8
	movq	24(%rbx), %rdx
	movq	32(%rdx), %rsi
	movq	32(%rsi), %rdi
	movq	32(%rdi), %r12
	movq	32(%r12), %rax
	movq	32(%rax), %r9
	movq	16(%rbx), %rcx
	movq	24(%rdx), %rdx
	movq	24(%rsi), %rsi
	movq	24(%rdi), %rdi
	movq	24(%r12), %rbx
	movq	24(%rax), %rax
	movq	16(%r9), %r12
	jmp	*%r12
	.cfi_endproc
	.type	caml_curry7_6,@function
	.size	caml_curry7_6,.-caml_curry7_6
	.text
	.align	16
	.globl	caml_curry6
caml_curry6:
	.cfi_startproc
	subq	$8, %rsp
	.cfi_adjust_cfa_offset	8
.L370:
	movq	%rax, %rsi
.L371:	subq	$48, %r15
	movq	caml_young_limit@GOTPCREL(%rip), %rax
	cmpq	(%rax), %r15
	jb	.L372
	leaq	8(%r15), %rax
	movq	$5367, -8(%rax)
	movq	caml_curry6_1@GOTPCREL(%rip), %rdi
	movq	%rdi, (%rax)
	movq	$11, 8(%rax)
	movq	caml_curry6_1_app@GOTPCREL(%rip), %rdi
	movq	%rdi, 16(%rax)
	movq	%rsi, 24(%rax)
	movq	%rbx, 32(%rax)
	addq	$8, %rsp
	.cfi_adjust_cfa_offset	-8
	ret
	.cfi_adjust_cfa_offset	8
.L372:	call	caml_call_gc@PLT
.L373:	jmp	.L371
	.cfi_endproc
	.type	caml_curry6,@function
	.size	caml_curry6,.-caml_curry6
	.text
	.align	16
	.globl	caml_curry6_1_app
caml_curry6_1_app:
	.cfi_startproc
.L374:
	movq	%rax, %r11
	movq	%rbx, %r10
	movq	%rdi, %rbp
	movq	%rsi, %r13
	movq	%rdx, %r12
	movq	32(%rcx), %r8
	movq	24(%rcx), %rax
	movq	16(%r8), %r9
	movq	%r11, %rbx
	movq	%r10, %rdi
	movq	%rbp, %rsi
	movq	%r13, %rdx
	movq	%r12, %rcx
	jmp	*%r9
	.cfi_endproc
	.type	caml_curry6_1_app,@function
	.size	caml_curry6_1_app,.-caml_curry6_1_app
	.text
	.align	16
	.globl	caml_curry6_1
caml_curry6_1:
	.cfi_startproc
	subq	$8, %rsp
	.cfi_adjust_cfa_offset	8
.L375:
	movq	%rax, %rsi
.L376:	subq	$48, %r15
	movq	caml_young_limit@GOTPCREL(%rip), %rax
	cmpq	(%rax), %r15
	jb	.L377
	leaq	8(%r15), %rax
	movq	$5367, -8(%rax)
	movq	caml_curry6_2@GOTPCREL(%rip), %rdi
	movq	%rdi, (%rax)
	movq	$9, 8(%rax)
	movq	caml_curry6_2_app@GOTPCREL(%rip), %rdi
	movq	%rdi, 16(%rax)
	movq	%rsi, 24(%rax)
	movq	%rbx, 32(%rax)
	addq	$8, %rsp
	.cfi_adjust_cfa_offset	-8
	ret
	.cfi_adjust_cfa_offset	8
.L377:	call	caml_call_gc@PLT
.L378:	jmp	.L376
	.cfi_endproc
	.type	caml_curry6_1,@function
	.size	caml_curry6_1,.-caml_curry6_1
	.text
	.align	16
	.globl	caml_curry6_2_app
caml_curry6_2_app:
	.cfi_startproc
.L379:
	movq	%rax, %rbp
	movq	%rbx, %r13
	movq	%rdi, %r12
	movq	%rsi, %rcx
	movq	32(%rdx), %rax
	movq	32(%rax), %r8
	movq	24(%rdx), %rbx
	movq	24(%rax), %rax
	movq	16(%r8), %r9
	movq	%rbp, %rdi
	movq	%r13, %rsi
	movq	%r12, %rdx
	jmp	*%r9
	.cfi_endproc
	.type	caml_curry6_2_app,@function
	.size	caml_curry6_2_app,.-caml_curry6_2_app
	.text
	.align	16
	.globl	caml_curry6_2
caml_curry6_2:
	.cfi_startproc
	subq	$8, %rsp
	.cfi_adjust_cfa_offset	8
.L380:
	movq	%rax, %rsi
.L381:	subq	$48, %r15
	movq	caml_young_limit@GOTPCREL(%rip), %rax
	cmpq	(%rax), %r15
	jb	.L382
	leaq	8(%r15), %rax
	movq	$5367, -8(%rax)
	movq	caml_curry6_3@GOTPCREL(%rip), %rdi
	movq	%rdi, (%rax)
	movq	$7, 8(%rax)
	movq	caml_curry6_3_app@GOTPCREL(%rip), %rdi
	movq	%rdi, 16(%rax)
	movq	%rsi, 24(%rax)
	movq	%rbx, 32(%rax)
	addq	$8, %rsp
	.cfi_adjust_cfa_offset	-8
	ret
	.cfi_adjust_cfa_offset	8
.L382:	call	caml_call_gc@PLT
.L383:	jmp	.L381
	.cfi_endproc
	.type	caml_curry6_2,@function
	.size	caml_curry6_2,.-caml_curry6_2
	.text
	.align	16
	.globl	caml_curry6_3_app
caml_curry6_3_app:
	.cfi_startproc
.L384:
	movq	%rax, %r12
	movq	%rbx, %rdx
	movq	%rdi, %rcx
	movq	32(%rsi), %rbx
	movq	32(%rbx), %rax
	movq	32(%rax), %r8
	movq	24(%rsi), %rdi
	movq	24(%rbx), %rbx
	movq	24(%rax), %rax
	movq	16(%r8), %r9
	movq	%r12, %rsi
	jmp	*%r9
	.cfi_endproc
	.type	caml_curry6_3_app,@function
	.size	caml_curry6_3_app,.-caml_curry6_3_app
	.text
	.align	16
	.globl	caml_curry6_3
caml_curry6_3:
	.cfi_startproc
	subq	$8, %rsp
	.cfi_adjust_cfa_offset	8
.L385:
	movq	%rax, %rsi
.L386:	subq	$48, %r15
	movq	caml_young_limit@GOTPCREL(%rip), %rax
	cmpq	(%rax), %r15
	jb	.L387
	leaq	8(%r15), %rax
	movq	$5367, -8(%rax)
	movq	caml_curry6_4@GOTPCREL(%rip), %rdi
	movq	%rdi, (%rax)
	movq	$5, 8(%rax)
	movq	caml_curry6_4_app@GOTPCREL(%rip), %rdi
	movq	%rdi, 16(%rax)
	movq	%rsi, 24(%rax)
	movq	%rbx, 32(%rax)
	addq	$8, %rsp
	.cfi_adjust_cfa_offset	-8
	ret
	.cfi_adjust_cfa_offset	8
.L387:	call	caml_call_gc@PLT
.L388:	jmp	.L386
	.cfi_endproc
	.type	caml_curry6_3,@function
	.size	caml_curry6_3,.-caml_curry6_3
	.text
	.align	16
	.globl	caml_curry6_4_app
caml_curry6_4_app:
	.cfi_startproc
.L389:
	movq	%rax, %rdx
	movq	%rbx, %rcx
	movq	32(%rdi), %r9
	movq	32(%r9), %rbx
	movq	32(%rbx), %rax
	movq	32(%rax), %r8
	movq	24(%rdi), %rsi
	movq	24(%r9), %rdi
	movq	24(%rbx), %rbx
	movq	24(%rax), %rax
	movq	16(%r8), %r9
	jmp	*%r9
	.cfi_endproc
	.type	caml_curry6_4_app,@function
	.size	caml_curry6_4_app,.-caml_curry6_4_app
	.text
	.align	16
	.globl	caml_curry6_4
caml_curry6_4:
	.cfi_startproc
	subq	$8, %rsp
	.cfi_adjust_cfa_offset	8
.L390:
	movq	%rax, %rsi
.L391:	subq	$40, %r15
	movq	caml_young_limit@GOTPCREL(%rip), %rax
	cmpq	(%rax), %r15
	jb	.L392
	leaq	8(%r15), %rax
	movq	$4343, -8(%rax)
	movq	caml_curry6_5@GOTPCREL(%rip), %rdi
	movq	%rdi, (%rax)
	movq	$3, 8(%rax)
	movq	%rsi, 16(%rax)
	movq	%rbx, 24(%rax)
	addq	$8, %rsp
	.cfi_adjust_cfa_offset	-8
	ret
	.cfi_adjust_cfa_offset	8
.L392:	call	caml_call_gc@PLT
.L393:	jmp	.L391
	.cfi_endproc
	.type	caml_curry6_4,@function
	.size	caml_curry6_4,.-caml_curry6_4
	.text
	.align	16
	.globl	caml_curry6_5
caml_curry6_5:
	.cfi_startproc
.L394:
	movq	%rax, %rcx
	movq	24(%rbx), %rsi
	movq	32(%rsi), %rdi
	movq	32(%rdi), %r9
	movq	32(%r9), %rax
	movq	32(%rax), %r8
	movq	16(%rbx), %rdx
	movq	24(%rsi), %rsi
	movq	24(%rdi), %rdi
	movq	24(%r9), %rbx
	movq	24(%rax), %rax
	movq	16(%r8), %r9
	jmp	*%r9
	.cfi_endproc
	.type	caml_curry6_5,@function
	.size	caml_curry6_5,.-caml_curry6_5
	.text
	.align	16
	.globl	caml_curry5
caml_curry5:
	.cfi_startproc
	subq	$8, %rsp
	.cfi_adjust_cfa_offset	8
.L395:
	movq	%rax, %rsi
.L396:	subq	$48, %r15
	movq	caml_young_limit@GOTPCREL(%rip), %rax
	cmpq	(%rax), %r15
	jb	.L397
	leaq	8(%r15), %rax
	movq	$5367, -8(%rax)
	movq	caml_curry5_1@GOTPCREL(%rip), %rdi
	movq	%rdi, (%rax)
	movq	$9, 8(%rax)
	movq	caml_curry5_1_app@GOTPCREL(%rip), %rdi
	movq	%rdi, 16(%rax)
	movq	%rsi, 24(%rax)
	movq	%rbx, 32(%rax)
	addq	$8, %rsp
	.cfi_adjust_cfa_offset	-8
	ret
	.cfi_adjust_cfa_offset	8
.L397:	call	caml_call_gc@PLT
.L398:	jmp	.L396
	.cfi_endproc
	.type	caml_curry5,@function
	.size	caml_curry5,.-caml_curry5
	.text
	.align	16
	.globl	caml_curry5_1_app
caml_curry5_1_app:
	.cfi_startproc
.L399:
	movq	%rax, %rbp
	movq	%rbx, %r13
	movq	%rdi, %r12
	movq	%rsi, %r9
	movq	32(%rdx), %rcx
	movq	24(%rdx), %rax
	movq	16(%rcx), %r8
	movq	%rbp, %rbx
	movq	%r13, %rdi
	movq	%r12, %rsi
	movq	%r9, %rdx
	jmp	*%r8
	.cfi_endproc
	.type	caml_curry5_1_app,@function
	.size	caml_curry5_1_app,.-caml_curry5_1_app
	.text
	.align	16
	.globl	caml_curry5_1
caml_curry5_1:
	.cfi_startproc
	subq	$8, %rsp
	.cfi_adjust_cfa_offset	8
.L400:
	movq	%rax, %rsi
.L401:	subq	$48, %r15
	movq	caml_young_limit@GOTPCREL(%rip), %rax
	cmpq	(%rax), %r15
	jb	.L402
	leaq	8(%r15), %rax
	movq	$5367, -8(%rax)
	movq	caml_curry5_2@GOTPCREL(%rip), %rdi
	movq	%rdi, (%rax)
	movq	$7, 8(%rax)
	movq	caml_curry5_2_app@GOTPCREL(%rip), %rdi
	movq	%rdi, 16(%rax)
	movq	%rsi, 24(%rax)
	movq	%rbx, 32(%rax)
	addq	$8, %rsp
	.cfi_adjust_cfa_offset	-8
	ret
	.cfi_adjust_cfa_offset	8
.L402:	call	caml_call_gc@PLT
.L403:	jmp	.L401
	.cfi_endproc
	.type	caml_curry5_1,@function
	.size	caml_curry5_1,.-caml_curry5_1
	.text
	.align	16
	.globl	caml_curry5_2_app
caml_curry5_2_app:
	.cfi_startproc
.L404:
	movq	%rax, %r12
	movq	%rbx, %r9
	movq	%rdi, %rdx
	movq	32(%rsi), %rax
	movq	32(%rax), %rcx
	movq	24(%rsi), %rbx
	movq	24(%rax), %rax
	movq	16(%rcx), %r8
	movq	%r12, %rdi
	movq	%r9, %rsi
	jmp	*%r8
	.cfi_endproc
	.type	caml_curry5_2_app,@function
	.size	caml_curry5_2_app,.-caml_curry5_2_app
	.text
	.align	16
	.globl	caml_curry5_2
caml_curry5_2:
	.cfi_startproc
	subq	$8, %rsp
	.cfi_adjust_cfa_offset	8
.L405:
	movq	%rax, %rsi
.L406:	subq	$48, %r15
	movq	caml_young_limit@GOTPCREL(%rip), %rax
	cmpq	(%rax), %r15
	jb	.L407
	leaq	8(%r15), %rax
	movq	$5367, -8(%rax)
	movq	caml_curry5_3@GOTPCREL(%rip), %rdi
	movq	%rdi, (%rax)
	movq	$5, 8(%rax)
	movq	caml_curry5_3_app@GOTPCREL(%rip), %rdi
	movq	%rdi, 16(%rax)
	movq	%rsi, 24(%rax)
	movq	%rbx, 32(%rax)
	addq	$8, %rsp
	.cfi_adjust_cfa_offset	-8
	ret
	.cfi_adjust_cfa_offset	8
.L407:	call	caml_call_gc@PLT
.L408:	jmp	.L406
	.cfi_endproc
	.type	caml_curry5_2,@function
	.size	caml_curry5_2,.-caml_curry5_2
	.text
	.align	16
	.globl	caml_curry5_3_app
caml_curry5_3_app:
	.cfi_startproc
.L409:
	movq	%rax, %rsi
	movq	%rbx, %rdx
	movq	32(%rdi), %rbx
	movq	32(%rbx), %rax
	movq	32(%rax), %rcx
	movq	24(%rdi), %rdi
	movq	24(%rbx), %rbx
	movq	24(%rax), %rax
	movq	16(%rcx), %r8
	jmp	*%r8
	.cfi_endproc
	.type	caml_curry5_3_app,@function
	.size	caml_curry5_3_app,.-caml_curry5_3_app
	.text
	.align	16
	.globl	caml_curry5_3
caml_curry5_3:
	.cfi_startproc
	subq	$8, %rsp
	.cfi_adjust_cfa_offset	8
.L410:
	movq	%rax, %rsi
.L411:	subq	$40, %r15
	movq	caml_young_limit@GOTPCREL(%rip), %rax
	cmpq	(%rax), %r15
	jb	.L412
	leaq	8(%r15), %rax
	movq	$4343, -8(%rax)
	movq	caml_curry5_4@GOTPCREL(%rip), %rdi
	movq	%rdi, (%rax)
	movq	$3, 8(%rax)
	movq	%rsi, 16(%rax)
	movq	%rbx, 24(%rax)
	addq	$8, %rsp
	.cfi_adjust_cfa_offset	-8
	ret
	.cfi_adjust_cfa_offset	8
.L412:	call	caml_call_gc@PLT
.L413:	jmp	.L411
	.cfi_endproc
	.type	caml_curry5_3,@function
	.size	caml_curry5_3,.-caml_curry5_3
	.text
	.align	16
	.globl	caml_curry5_4
caml_curry5_4:
	.cfi_startproc
.L414:
	movq	%rax, %rdx
	movq	24(%rbx), %rdi
	movq	32(%rdi), %r8
	movq	32(%r8), %rax
	movq	32(%rax), %rcx
	movq	16(%rbx), %rsi
	movq	24(%rdi), %rdi
	movq	24(%r8), %rbx
	movq	24(%rax), %rax
	movq	16(%rcx), %r8
	jmp	*%r8
	.cfi_endproc
	.type	caml_curry5_4,@function
	.size	caml_curry5_4,.-caml_curry5_4
	.text
	.align	16
	.globl	caml_curry4
caml_curry4:
	.cfi_startproc
	subq	$8, %rsp
	.cfi_adjust_cfa_offset	8
.L415:
	movq	%rax, %rsi
.L416:	subq	$48, %r15
	movq	caml_young_limit@GOTPCREL(%rip), %rax
	cmpq	(%rax), %r15
	jb	.L417
	leaq	8(%r15), %rax
	movq	$5367, -8(%rax)
	movq	caml_curry4_1@GOTPCREL(%rip), %rdi
	movq	%rdi, (%rax)
	movq	$7, 8(%rax)
	movq	caml_curry4_1_app@GOTPCREL(%rip), %rdi
	movq	%rdi, 16(%rax)
	movq	%rsi, 24(%rax)
	movq	%rbx, 32(%rax)
	addq	$8, %rsp
	.cfi_adjust_cfa_offset	-8
	ret
	.cfi_adjust_cfa_offset	8
.L417:	call	caml_call_gc@PLT
.L418:	jmp	.L416
	.cfi_endproc
	.type	caml_curry4,@function
	.size	caml_curry4,.-caml_curry4
	.text
	.align	16
	.globl	caml_curry4_1_app
caml_curry4_1_app:
	.cfi_startproc
.L419:
	movq	%rax, %r12
	movq	%rbx, %r9
	movq	%rdi, %r8
	movq	32(%rsi), %rdx
	movq	24(%rsi), %rax
	movq	16(%rdx), %rcx
	movq	%r12, %rbx
	movq	%r9, %rdi
	movq	%r8, %rsi
	jmp	*%rcx
	.cfi_endproc
	.type	caml_curry4_1_app,@function
	.size	caml_curry4_1_app,.-caml_curry4_1_app
	.text
	.align	16
	.globl	caml_curry4_1
caml_curry4_1:
	.cfi_startproc
	subq	$8, %rsp
	.cfi_adjust_cfa_offset	8
.L420:
	movq	%rax, %rsi
.L421:	subq	$48, %r15
	movq	caml_young_limit@GOTPCREL(%rip), %rax
	cmpq	(%rax), %r15
	jb	.L422
	leaq	8(%r15), %rax
	movq	$5367, -8(%rax)
	movq	caml_curry4_2@GOTPCREL(%rip), %rdi
	movq	%rdi, (%rax)
	movq	$5, 8(%rax)
	movq	caml_curry4_2_app@GOTPCREL(%rip), %rdi
	movq	%rdi, 16(%rax)
	movq	%rsi, 24(%rax)
	movq	%rbx, 32(%rax)
	addq	$8, %rsp
	.cfi_adjust_cfa_offset	-8
	ret
	.cfi_adjust_cfa_offset	8
.L422:	call	caml_call_gc@PLT
.L423:	jmp	.L421
	.cfi_endproc
	.type	caml_curry4_1,@function
	.size	caml_curry4_1,.-caml_curry4_1
	.text
	.align	16
	.globl	caml_curry4_2_app
caml_curry4_2_app:
	.cfi_startproc
.L424:
	movq	%rax, %r8
	movq	%rbx, %rsi
	movq	32(%rdi), %rax
	movq	32(%rax), %rdx
	movq	24(%rdi), %rbx
	movq	24(%rax), %rax
	movq	16(%rdx), %rcx
	movq	%r8, %rdi
	jmp	*%rcx
	.cfi_endproc
	.type	caml_curry4_2_app,@function
	.size	caml_curry4_2_app,.-caml_curry4_2_app
	.text
	.align	16
	.globl	caml_curry4_2
caml_curry4_2:
	.cfi_startproc
	subq	$8, %rsp
	.cfi_adjust_cfa_offset	8
.L425:
	movq	%rax, %rsi
.L426:	subq	$40, %r15
	movq	caml_young_limit@GOTPCREL(%rip), %rax
	cmpq	(%rax), %r15
	jb	.L427
	leaq	8(%r15), %rax
	movq	$4343, -8(%rax)
	movq	caml_curry4_3@GOTPCREL(%rip), %rdi
	movq	%rdi, (%rax)
	movq	$3, 8(%rax)
	movq	%rsi, 16(%rax)
	movq	%rbx, 24(%rax)
	addq	$8, %rsp
	.cfi_adjust_cfa_offset	-8
	ret
	.cfi_adjust_cfa_offset	8
.L427:	call	caml_call_gc@PLT
.L428:	jmp	.L426
	.cfi_endproc
	.type	caml_curry4_2,@function
	.size	caml_curry4_2,.-caml_curry4_2
	.text
	.align	16
	.globl	caml_curry4_3
caml_curry4_3:
	.cfi_startproc
.L429:
	movq	%rax, %rsi
	movq	24(%rbx), %rcx
	movq	32(%rcx), %rax
	movq	32(%rax), %rdx
	movq	16(%rbx), %rdi
	movq	24(%rcx), %rbx
	movq	24(%rax), %rax
	movq	16(%rdx), %rcx
	jmp	*%rcx
	.cfi_endproc
	.type	caml_curry4_3,@function
	.size	caml_curry4_3,.-caml_curry4_3
	.text
	.align	16
	.globl	caml_curry3
caml_curry3:
	.cfi_startproc
	subq	$8, %rsp
	.cfi_adjust_cfa_offset	8
.L430:
	movq	%rax, %rsi
.L431:	subq	$48, %r15
	movq	caml_young_limit@GOTPCREL(%rip), %rax
	cmpq	(%rax), %r15
	jb	.L432
	leaq	8(%r15), %rax
	movq	$5367, -8(%rax)
	movq	caml_curry3_1@GOTPCREL(%rip), %rdi
	movq	%rdi, (%rax)
	movq	$5, 8(%rax)
	movq	caml_curry3_1_app@GOTPCREL(%rip), %rdi
	movq	%rdi, 16(%rax)
	movq	%rsi, 24(%rax)
	movq	%rbx, 32(%rax)
	addq	$8, %rsp
	.cfi_adjust_cfa_offset	-8
	ret
	.cfi_adjust_cfa_offset	8
.L432:	call	caml_call_gc@PLT
.L433:	jmp	.L431
	.cfi_endproc
	.type	caml_curry3,@function
	.size	caml_curry3,.-caml_curry3
	.text
	.align	16
	.globl	caml_curry3_1_app
caml_curry3_1_app:
	.cfi_startproc
.L434:
	movq	%rax, %r8
	movq	%rbx, %rcx
	movq	32(%rdi), %rsi
	movq	24(%rdi), %rax
	movq	16(%rsi), %rdx
	movq	%r8, %rbx
	movq	%rcx, %rdi
	jmp	*%rdx
	.cfi_endproc
	.type	caml_curry3_1_app,@function
	.size	caml_curry3_1_app,.-caml_curry3_1_app
	.text
	.align	16
	.globl	caml_curry3_1
caml_curry3_1:
	.cfi_startproc
	subq	$8, %rsp
	.cfi_adjust_cfa_offset	8
.L435:
	movq	%rax, %rsi
.L436:	subq	$40, %r15
	movq	caml_young_limit@GOTPCREL(%rip), %rax
	cmpq	(%rax), %r15
	jb	.L437
	leaq	8(%r15), %rax
	movq	$4343, -8(%rax)
	movq	caml_curry3_2@GOTPCREL(%rip), %rdi
	movq	%rdi, (%rax)
	movq	$3, 8(%rax)
	movq	%rsi, 16(%rax)
	movq	%rbx, 24(%rax)
	addq	$8, %rsp
	.cfi_adjust_cfa_offset	-8
	ret
	.cfi_adjust_cfa_offset	8
.L437:	call	caml_call_gc@PLT
.L438:	jmp	.L436
	.cfi_endproc
	.type	caml_curry3_1,@function
	.size	caml_curry3_1,.-caml_curry3_1
	.text
	.align	16
	.globl	caml_curry3_2
caml_curry3_2:
	.cfi_startproc
.L439:
	movq	%rax, %rdi
	movq	24(%rbx), %rax
	movq	32(%rax), %rsi
	movq	16(%rbx), %rbx
	movq	24(%rax), %rax
	movq	16(%rsi), %rdx
	jmp	*%rdx
	.cfi_endproc
	.type	caml_curry3_2,@function
	.size	caml_curry3_2,.-caml_curry3_2
	.text
	.align	16
	.globl	caml_curry2
caml_curry2:
	.cfi_startproc
	subq	$8, %rsp
	.cfi_adjust_cfa_offset	8
.L440:
	movq	%rax, %rsi
.L441:	subq	$40, %r15
	movq	caml_young_limit@GOTPCREL(%rip), %rax
	cmpq	(%rax), %r15
	jb	.L442
	leaq	8(%r15), %rax
	movq	$4343, -8(%rax)
	movq	caml_curry2_1@GOTPCREL(%rip), %rdi
	movq	%rdi, (%rax)
	movq	$3, 8(%rax)
	movq	%rsi, 16(%rax)
	movq	%rbx, 24(%rax)
	addq	$8, %rsp
	.cfi_adjust_cfa_offset	-8
	ret
	.cfi_adjust_cfa_offset	8
.L442:	call	caml_call_gc@PLT
.L443:	jmp	.L441
	.cfi_endproc
	.type	caml_curry2,@function
	.size	caml_curry2,.-caml_curry2
	.text
	.align	16
	.globl	caml_curry2_1
caml_curry2_1:
	.cfi_startproc
.L444:
	movq	%rax, %rdx
	movq	24(%rbx), %rdi
	movq	16(%rbx), %rax
	movq	16(%rdi), %rsi
	movq	%rdx, %rbx
	jmp	*%rsi
	.cfi_endproc
	.type	caml_curry2_1,@function
	.size	caml_curry2_1,.-caml_curry2_1
	.text
	.align	16
	.globl	caml_tuplify2
caml_tuplify2:
	.cfi_startproc
.L445:
	movq	%rbx, %rdi
	movq	8(%rax), %rbx
	movq	(%rax), %rax
	movq	16(%rdi), %rsi
	jmp	*%rsi
	.cfi_endproc
	.type	caml_tuplify2,@function
	.size	caml_tuplify2,.-caml_tuplify2
	.text
	.align	16
	.globl	caml_tuplify3
caml_tuplify3:
	.cfi_startproc
.L446:
	movq	%rbx, %rsi
	movq	16(%rax), %rdi
	movq	8(%rax), %rbx
	movq	(%rax), %rax
	movq	16(%rsi), %rdx
	jmp	*%rdx
	.cfi_endproc
	.type	caml_tuplify3,@function
	.size	caml_tuplify3,.-caml_tuplify3
	.text
	.align	16
	.globl	caml_tuplify4
caml_tuplify4:
	.cfi_startproc
.L447:
	movq	%rbx, %rdx
	movq	24(%rax), %rsi
	movq	16(%rax), %rdi
	movq	8(%rax), %rbx
	movq	(%rax), %rax
	movq	16(%rdx), %rcx
	jmp	*%rcx
	.cfi_endproc
	.type	caml_tuplify4,@function
	.size	caml_tuplify4,.-caml_tuplify4
	.text
	.align	16
	.globl	caml_tuplify5
caml_tuplify5:
	.cfi_startproc
.L448:
	movq	%rbx, %rcx
	movq	32(%rax), %rdx
	movq	24(%rax), %rsi
	movq	16(%rax), %rdi
	movq	8(%rax), %rbx
	movq	(%rax), %rax
	movq	16(%rcx), %r8
	jmp	*%r8
	.cfi_endproc
	.type	caml_tuplify5,@function
	.size	caml_tuplify5,.-caml_tuplify5
	.text
	.align	16
	.globl	caml_tuplify8
caml_tuplify8:
	.cfi_startproc
.L449:
	movq	%rbx, %r12
	movq	56(%rax), %r9
	movq	48(%rax), %r8
	movq	40(%rax), %rcx
	movq	32(%rax), %rdx
	movq	24(%rax), %rsi
	movq	16(%rax), %rdi
	movq	8(%rax), %rbx
	movq	(%rax), %rax
	movq	16(%r12), %r13
	jmp	*%r13
	.cfi_endproc
	.type	caml_tuplify8,@function
	.size	caml_tuplify8,.-caml_tuplify8
	.text
	.align	16
	.globl	caml_tuplify12
caml_tuplify12:
	.cfi_startproc
	subq	$8, %rsp
	.cfi_adjust_cfa_offset	8
.L450:
	movq	%rbx, %r10
	movq	88(%rax), %rbx
	movq	%rbx, 0(%rsp)
	movq	80(%rax), %rbp
	movq	72(%rax), %r13
	movq	64(%rax), %r12
	movq	56(%rax), %r9
	movq	48(%rax), %r8
	movq	40(%rax), %rcx
	movq	32(%rax), %rdx
	movq	24(%rax), %rsi
	movq	16(%rax), %rdi
	movq	8(%rax), %rbx
	movq	(%rax), %rax
	movq	16(%r10), %r11
	subq	$32, %rsp
	.cfi_adjust_cfa_offset	32
	movq	%rbp, 0(%rsp)
	movq	32(%rsp), %rbp
	movq	%rbp, 8(%rsp)
	movq	%r10, 16(%rsp)
	call	*%r11
.L451:
	addq	$32, %rsp
	.cfi_adjust_cfa_offset	-32
	addq	$8, %rsp
	.cfi_adjust_cfa_offset	-8
	ret
	.cfi_adjust_cfa_offset	8
	.cfi_endproc
	.type	caml_tuplify12,@function
	.size	caml_tuplify12,.-caml_tuplify12
	.text
	.align	16
	.globl	caml_send0
caml_send0:
	.cfi_startproc
.L457:
	movq	(%rax), %rsi
	movq	8(%rsi), %rcx
	movq	(%rdi), %rdx
	andq	%rcx, %rdx
	movq	23(%rdx, %rsi), %rcx
	cmpq	%rbx, %rcx
	je	.L452
	movq	$3, %r9
	movq	(%rsi), %r8
.L454:
	movq	%r9, %rdx
	addq	%r8, %rdx
	shrq	$1, %rdx
	orq	$1, %rdx
	movq	(%rsi, %rdx, 8), %rcx
	cmpq	%rcx, %rbx
	jge	.L456
	subq	$2, %rdx
	movq	%rdx, %r8
	jmp	.L455
	.align	4
.L456:
	movq	%rdx, %r9
.L455:
	cmpq	%r8, %r9
	jl	.L454
.L453:
	leaq	-23(, %r9, 8), %rdx
	movq	%rdx, (%rdi)
.L452:
	movq	15(%rdx, %rsi), %rbx
	movq	(%rbx), %rdi
	jmp	*%rdi
	.cfi_endproc
	.type	caml_send0,@function
	.size	caml_send0,.-caml_send0
	.text
	.align	16
	.globl	caml_apply13
caml_apply13:
	.cfi_startproc
	subq	$120, %rsp
	.cfi_adjust_cfa_offset	120
.L459:
	movq	%rax, 16(%rsp)
	movq	%rbx, 24(%rsp)
	movq	%rdi, 32(%rsp)
	movq	%rsi, 40(%rsp)
	movq	%rdx, 48(%rsp)
	movq	%rcx, 56(%rsp)
	movq	%r8, 64(%rsp)
	movq	%r9, 72(%rsp)
	movq	%r12, 80(%rsp)
	movq	%r13, 88(%rsp)
	movq	128(%rsp), %rax
	movq	%rax, 96(%rsp)
	movq	136(%rsp), %rax
	movq	%rax, 104(%rsp)
	movq	144(%rsp), %rbp
	movq	152(%rsp), %r10
	movq	8(%r10), %rax
	cmpq	$27, %rax
	jne	.L458
	movq	16(%r10), %rax
	movq	%rax, 0(%rsp)
	subq	$32, %rsp
	.cfi_adjust_cfa_offset	32
	movq	48(%rsp), %rax
	movq	56(%rsp), %rbx
	movq	64(%rsp), %rdi
	movq	72(%rsp), %rsi
	movq	80(%rsp), %rdx
	movq	88(%rsp), %rcx
	movq	96(%rsp), %r8
	movq	104(%rsp), %r9
	movq	112(%rsp), %r12
	movq	120(%rsp), %r13
	movq	128(%rsp), %r11
	movq	%r11, 0(%rsp)
	movq	136(%rsp), %r11
	movq	%r11, 8(%rsp)
	movq	%rbp, 16(%rsp)
	movq	%r10, 24(%rsp)
	movq	32(%rsp), %rbp
	call	*%rbp
.L460:
	addq	$32, %rsp
	.cfi_adjust_cfa_offset	-32
	addq	$120, %rsp
	.cfi_adjust_cfa_offset	-120
	ret
	.cfi_adjust_cfa_offset	120
	.align	4
.L458:
	movq	%rbp, 8(%rsp)
	movq	(%r10), %rax
	movq	%rax, 0(%rsp)
	movq	16(%rsp), %rax
	movq	%r10, %rbx
	movq	0(%rsp), %rdi
	call	*%rdi
.L461:
	movq	%rax, %rbx
	movq	(%rbx), %rdi
	movq	24(%rsp), %rax
	call	*%rdi
.L462:
	movq	%rax, %rbx
	movq	(%rbx), %rdi
	movq	32(%rsp), %rax
	call	*%rdi
.L463:
	movq	%rax, %rbx
	movq	(%rbx), %rdi
	movq	40(%rsp), %rax
	call	*%rdi
.L464:
	movq	%rax, %rbx
	movq	(%rbx), %rdi
	movq	48(%rsp), %rax
	call	*%rdi
.L465:
	movq	%rax, %rbx
	movq	(%rbx), %rdi
	movq	56(%rsp), %rax
	call	*%rdi
.L466:
	movq	%rax, %rbx
	movq	(%rbx), %rdi
	movq	64(%rsp), %rax
	call	*%rdi
.L467:
	movq	%rax, %rbx
	movq	(%rbx), %rdi
	movq	72(%rsp), %rax
	call	*%rdi
.L468:
	movq	%rax, %rbx
	movq	(%rbx), %rdi
	movq	80(%rsp), %rax
	call	*%rdi
.L469:
	movq	%rax, %rbx
	movq	(%rbx), %rdi
	movq	88(%rsp), %rax
	call	*%rdi
.L470:
	movq	%rax, %rbx
	movq	(%rbx), %rdi
	movq	96(%rsp), %rax
	call	*%rdi
.L471:
	movq	%rax, %rbx
	movq	(%rbx), %rdi
	movq	104(%rsp), %rax
	call	*%rdi
.L472:
	movq	%rax, %rbx
	movq	(%rbx), %rdi
	movq	8(%rsp), %rax
	addq	$120, %rsp
	.cfi_adjust_cfa_offset	-120
	jmp	*%rdi
	.cfi_adjust_cfa_offset	120
	.cfi_endproc
	.type	caml_apply13,@function
	.size	caml_apply13,.-caml_apply13
	.text
	.align	16
	.globl	caml_apply11
caml_apply11:
	.cfi_startproc
	subq	$88, %rsp
	.cfi_adjust_cfa_offset	88
.L474:
	movq	96(%rsp), %r10
	movq	104(%rsp), %rbp
	movq	8(%rbp), %r11
	cmpq	$23, %r11
	jne	.L473
	movq	16(%rbp), %r11
	subq	$16, %rsp
	.cfi_adjust_cfa_offset	16
	movq	%r10, 0(%rsp)
	movq	%rbp, 8(%rsp)
	call	*%r11
.L475:
	addq	$16, %rsp
	.cfi_adjust_cfa_offset	-16
	addq	$88, %rsp
	.cfi_adjust_cfa_offset	-88
	ret
	.cfi_adjust_cfa_offset	88
	.align	4
.L473:
	movq	%r10, 72(%rsp)
	movq	%r13, 64(%rsp)
	movq	%r12, 56(%rsp)
	movq	%r9, 48(%rsp)
	movq	%r8, 40(%rsp)
	movq	%rcx, 32(%rsp)
	movq	%rdx, 24(%rsp)
	movq	%rsi, 16(%rsp)
	movq	%rdi, 8(%rsp)
	movq	%rbx, 0(%rsp)
	movq	(%rbp), %rdi
	movq	%rbp, %rbx
	call	*%rdi
.L476:
	movq	%rax, %rbx
	movq	(%rbx), %rdi
	movq	0(%rsp), %rax
	call	*%rdi
.L477:
	movq	%rax, %rbx
	movq	(%rbx), %rdi
	movq	8(%rsp), %rax
	call	*%rdi
.L478:
	movq	%rax, %rbx
	movq	(%rbx), %rdi
	movq	16(%rsp), %rax
	call	*%rdi
.L479:
	movq	%rax, %rbx
	movq	(%rbx), %rdi
	movq	24(%rsp), %rax
	call	*%rdi
.L480:
	movq	%rax, %rbx
	movq	(%rbx), %rdi
	movq	32(%rsp), %rax
	call	*%rdi
.L481:
	movq	%rax, %rbx
	movq	(%rbx), %rdi
	movq	40(%rsp), %rax
	call	*%rdi
.L482:
	movq	%rax, %rbx
	movq	(%rbx), %rdi
	movq	48(%rsp), %rax
	call	*%rdi
.L483:
	movq	%rax, %rbx
	movq	(%rbx), %rdi
	movq	56(%rsp), %rax
	call	*%rdi
.L484:
	movq	%rax, %rbx
	movq	(%rbx), %rdi
	movq	64(%rsp), %rax
	call	*%rdi
.L485:
	movq	%rax, %rbx
	movq	(%rbx), %rdi
	movq	72(%rsp), %rax
	addq	$88, %rsp
	.cfi_adjust_cfa_offset	-88
	jmp	*%rdi
	.cfi_adjust_cfa_offset	88
	.cfi_endproc
	.type	caml_apply11,@function
	.size	caml_apply11,.-caml_apply11
	.text
	.align	16
	.globl	caml_apply10
caml_apply10:
	.cfi_startproc
	subq	$72, %rsp
	.cfi_adjust_cfa_offset	72
.L487:
	movq	80(%rsp), %rbp
	movq	8(%rbp), %r10
	cmpq	$21, %r10
	jne	.L486
	movq	16(%rbp), %r10
	subq	$16, %rsp
	.cfi_adjust_cfa_offset	16
	movq	%rbp, 0(%rsp)
	call	*%r10
.L488:
	addq	$16, %rsp
	.cfi_adjust_cfa_offset	-16
	addq	$72, %rsp
	.cfi_adjust_cfa_offset	-72
	ret
	.cfi_adjust_cfa_offset	72
	.align	4
.L486:
	movq	%r13, 64(%rsp)
	movq	%r12, 56(%rsp)
	movq	%r9, 48(%rsp)
	movq	%r8, 40(%rsp)
	movq	%rcx, 32(%rsp)
	movq	%rdx, 24(%rsp)
	movq	%rsi, 16(%rsp)
	movq	%rdi, 8(%rsp)
	movq	%rbx, 0(%rsp)
	movq	(%rbp), %rdi
	movq	%rbp, %rbx
	call	*%rdi
.L489:
	movq	%rax, %rbx
	movq	(%rbx), %rdi
	movq	0(%rsp), %rax
	call	*%rdi
.L490:
	movq	%rax, %rbx
	movq	(%rbx), %rdi
	movq	8(%rsp), %rax
	call	*%rdi
.L491:
	movq	%rax, %rbx
	movq	(%rbx), %rdi
	movq	16(%rsp), %rax
	call	*%rdi
.L492:
	movq	%rax, %rbx
	movq	(%rbx), %rdi
	movq	24(%rsp), %rax
	call	*%rdi
.L493:
	movq	%rax, %rbx
	movq	(%rbx), %rdi
	movq	32(%rsp), %rax
	call	*%rdi
.L494:
	movq	%rax, %rbx
	movq	(%rbx), %rdi
	movq	40(%rsp), %rax
	call	*%rdi
.L495:
	movq	%rax, %rbx
	movq	(%rbx), %rdi
	movq	48(%rsp), %rax
	call	*%rdi
.L496:
	movq	%rax, %rbx
	movq	(%rbx), %rdi
	movq	56(%rsp), %rax
	call	*%rdi
.L497:
	movq	%rax, %rbx
	movq	(%rbx), %rdi
	movq	64(%rsp), %rax
	addq	$72, %rsp
	.cfi_adjust_cfa_offset	-72
	jmp	*%rdi
	.cfi_adjust_cfa_offset	72
	.cfi_endproc
	.type	caml_apply10,@function
	.size	caml_apply10,.-caml_apply10
	.text
	.align	16
	.globl	caml_apply9
caml_apply9:
	.cfi_startproc
	subq	$72, %rsp
	.cfi_adjust_cfa_offset	72
.L499:
	movq	8(%r13), %rbp
	cmpq	$19, %rbp
	jne	.L498
	movq	16(%r13), %rbp
	addq	$72, %rsp
	.cfi_adjust_cfa_offset	-72
	jmp	*%rbp
	.cfi_adjust_cfa_offset	72
	.align	4
.L498:
	movq	%r12, 56(%rsp)
	movq	%r9, 48(%rsp)
	movq	%r8, 40(%rsp)
	movq	%rcx, 32(%rsp)
	movq	%rdx, 24(%rsp)
	movq	%rsi, 16(%rsp)
	movq	%rdi, 8(%rsp)
	movq	%rbx, 0(%rsp)
	movq	(%r13), %rdi
	movq	%r13, %rbx
	call	*%rdi
.L500:
	movq	%rax, %rbx
	movq	(%rbx), %rdi
	movq	0(%rsp), %rax
	call	*%rdi
.L501:
	movq	%rax, %rbx
	movq	(%rbx), %rdi
	movq	8(%rsp), %rax
	call	*%rdi
.L502:
	movq	%rax, %rbx
	movq	(%rbx), %rdi
	movq	16(%rsp), %rax
	call	*%rdi
.L503:
	movq	%rax, %rbx
	movq	(%rbx), %rdi
	movq	24(%rsp), %rax
	call	*%rdi
.L504:
	movq	%rax, %rbx
	movq	(%rbx), %rdi
	movq	32(%rsp), %rax
	call	*%rdi
.L505:
	movq	%rax, %rbx
	movq	(%rbx), %rdi
	movq	40(%rsp), %rax
	call	*%rdi
.L506:
	movq	%rax, %rbx
	movq	(%rbx), %rdi
	movq	48(%rsp), %rax
	call	*%rdi
.L507:
	movq	%rax, %rbx
	movq	(%rbx), %rdi
	movq	56(%rsp), %rax
	addq	$72, %rsp
	.cfi_adjust_cfa_offset	-72
	jmp	*%rdi
	.cfi_adjust_cfa_offset	72
	.cfi_endproc
	.type	caml_apply9,@function
	.size	caml_apply9,.-caml_apply9
	.text
	.align	16
	.globl	caml_apply8
caml_apply8:
	.cfi_startproc
	subq	$56, %rsp
	.cfi_adjust_cfa_offset	56
.L509:
	movq	8(%r12), %r13
	cmpq	$17, %r13
	jne	.L508
	movq	16(%r12), %r13
	addq	$56, %rsp
	.cfi_adjust_cfa_offset	-56
	jmp	*%r13
	.cfi_adjust_cfa_offset	56
	.align	4
.L508:
	movq	%r9, 48(%rsp)
	movq	%r8, 40(%rsp)
	movq	%rcx, 32(%rsp)
	movq	%rdx, 24(%rsp)
	movq	%rsi, 16(%rsp)
	movq	%rdi, 8(%rsp)
	movq	%rbx, 0(%rsp)
	movq	(%r12), %rdi
	movq	%r12, %rbx
	call	*%rdi
.L510:
	movq	%rax, %rbx
	movq	(%rbx), %rdi
	movq	0(%rsp), %rax
	call	*%rdi
.L511:
	movq	%rax, %rbx
	movq	(%rbx), %rdi
	movq	8(%rsp), %rax
	call	*%rdi
.L512:
	movq	%rax, %rbx
	movq	(%rbx), %rdi
	movq	16(%rsp), %rax
	call	*%rdi
.L513:
	movq	%rax, %rbx
	movq	(%rbx), %rdi
	movq	24(%rsp), %rax
	call	*%rdi
.L514:
	movq	%rax, %rbx
	movq	(%rbx), %rdi
	movq	32(%rsp), %rax
	call	*%rdi
.L515:
	movq	%rax, %rbx
	movq	(%rbx), %rdi
	movq	40(%rsp), %rax
	call	*%rdi
.L516:
	movq	%rax, %rbx
	movq	(%rbx), %rdi
	movq	48(%rsp), %rax
	addq	$56, %rsp
	.cfi_adjust_cfa_offset	-56
	jmp	*%rdi
	.cfi_adjust_cfa_offset	56
	.cfi_endproc
	.type	caml_apply8,@function
	.size	caml_apply8,.-caml_apply8
	.text
	.align	16
	.globl	caml_apply7
caml_apply7:
	.cfi_startproc
	subq	$56, %rsp
	.cfi_adjust_cfa_offset	56
.L518:
	movq	8(%r9), %r12
	cmpq	$15, %r12
	jne	.L517
	movq	16(%r9), %r12
	addq	$56, %rsp
	.cfi_adjust_cfa_offset	-56
	jmp	*%r12
	.cfi_adjust_cfa_offset	56
	.align	4
.L517:
	movq	%r8, 40(%rsp)
	movq	%rcx, 32(%rsp)
	movq	%rdx, 24(%rsp)
	movq	%rsi, 16(%rsp)
	movq	%rdi, 8(%rsp)
	movq	%rbx, 0(%rsp)
	movq	(%r9), %rdi
	movq	%r9, %rbx
	call	*%rdi
.L519:
	movq	%rax, %rbx
	movq	(%rbx), %rdi
	movq	0(%rsp), %rax
	call	*%rdi
.L520:
	movq	%rax, %rbx
	movq	(%rbx), %rdi
	movq	8(%rsp), %rax
	call	*%rdi
.L521:
	movq	%rax, %rbx
	movq	(%rbx), %rdi
	movq	16(%rsp), %rax
	call	*%rdi
.L522:
	movq	%rax, %rbx
	movq	(%rbx), %rdi
	movq	24(%rsp), %rax
	call	*%rdi
.L523:
	movq	%rax, %rbx
	movq	(%rbx), %rdi
	movq	32(%rsp), %rax
	call	*%rdi
.L524:
	movq	%rax, %rbx
	movq	(%rbx), %rdi
	movq	40(%rsp), %rax
	addq	$56, %rsp
	.cfi_adjust_cfa_offset	-56
	jmp	*%rdi
	.cfi_adjust_cfa_offset	56
	.cfi_endproc
	.type	caml_apply7,@function
	.size	caml_apply7,.-caml_apply7
	.text
	.align	16
	.globl	caml_apply6
caml_apply6:
	.cfi_startproc
	subq	$40, %rsp
	.cfi_adjust_cfa_offset	40
.L526:
	movq	8(%r8), %r9
	cmpq	$13, %r9
	jne	.L525
	movq	16(%r8), %r9
	addq	$40, %rsp
	.cfi_adjust_cfa_offset	-40
	jmp	*%r9
	.cfi_adjust_cfa_offset	40
	.align	4
.L525:
	movq	%rcx, 32(%rsp)
	movq	%rdx, 24(%rsp)
	movq	%rsi, 16(%rsp)
	movq	%rdi, 8(%rsp)
	movq	%rbx, 0(%rsp)
	movq	(%r8), %rdi
	movq	%r8, %rbx
	call	*%rdi
.L527:
	movq	%rax, %rbx
	movq	(%rbx), %rdi
	movq	0(%rsp), %rax
	call	*%rdi
.L528:
	movq	%rax, %rbx
	movq	(%rbx), %rdi
	movq	8(%rsp), %rax
	call	*%rdi
.L529:
	movq	%rax, %rbx
	movq	(%rbx), %rdi
	movq	16(%rsp), %rax
	call	*%rdi
.L530:
	movq	%rax, %rbx
	movq	(%rbx), %rdi
	movq	24(%rsp), %rax
	call	*%rdi
.L531:
	movq	%rax, %rbx
	movq	(%rbx), %rdi
	movq	32(%rsp), %rax
	addq	$40, %rsp
	.cfi_adjust_cfa_offset	-40
	jmp	*%rdi
	.cfi_adjust_cfa_offset	40
	.cfi_endproc
	.type	caml_apply6,@function
	.size	caml_apply6,.-caml_apply6
	.text
	.align	16
	.globl	caml_apply5
caml_apply5:
	.cfi_startproc
	subq	$40, %rsp
	.cfi_adjust_cfa_offset	40
.L533:
	movq	8(%rcx), %r8
	cmpq	$11, %r8
	jne	.L532
	movq	16(%rcx), %r8
	addq	$40, %rsp
	.cfi_adjust_cfa_offset	-40
	jmp	*%r8
	.cfi_adjust_cfa_offset	40
	.align	4
.L532:
	movq	%rdx, 24(%rsp)
	movq	%rsi, 16(%rsp)
	movq	%rdi, 8(%rsp)
	movq	%rbx, 0(%rsp)
	movq	(%rcx), %rdi
	movq	%rcx, %rbx
	call	*%rdi
.L534:
	movq	%rax, %rbx
	movq	(%rbx), %rdi
	movq	0(%rsp), %rax
	call	*%rdi
.L535:
	movq	%rax, %rbx
	movq	(%rbx), %rdi
	movq	8(%rsp), %rax
	call	*%rdi
.L536:
	movq	%rax, %rbx
	movq	(%rbx), %rdi
	movq	16(%rsp), %rax
	call	*%rdi
.L537:
	movq	%rax, %rbx
	movq	(%rbx), %rdi
	movq	24(%rsp), %rax
	addq	$40, %rsp
	.cfi_adjust_cfa_offset	-40
	jmp	*%rdi
	.cfi_adjust_cfa_offset	40
	.cfi_endproc
	.type	caml_apply5,@function
	.size	caml_apply5,.-caml_apply5
	.text
	.align	16
	.globl	caml_apply4
caml_apply4:
	.cfi_startproc
	subq	$24, %rsp
	.cfi_adjust_cfa_offset	24
.L539:
	movq	8(%rdx), %rcx
	cmpq	$9, %rcx
	jne	.L538
	movq	16(%rdx), %rcx
	addq	$24, %rsp
	.cfi_adjust_cfa_offset	-24
	jmp	*%rcx
	.cfi_adjust_cfa_offset	24
	.align	4
.L538:
	movq	%rsi, 16(%rsp)
	movq	%rdi, 8(%rsp)
	movq	%rbx, 0(%rsp)
	movq	(%rdx), %rdi
	movq	%rdx, %rbx
	call	*%rdi
.L540:
	movq	%rax, %rbx
	movq	(%rbx), %rdi
	movq	0(%rsp), %rax
	call	*%rdi
.L541:
	movq	%rax, %rbx
	movq	(%rbx), %rdi
	movq	8(%rsp), %rax
	call	*%rdi
.L542:
	movq	%rax, %rbx
	movq	(%rbx), %rdi
	movq	16(%rsp), %rax
	addq	$24, %rsp
	.cfi_adjust_cfa_offset	-24
	jmp	*%rdi
	.cfi_adjust_cfa_offset	24
	.cfi_endproc
	.type	caml_apply4,@function
	.size	caml_apply4,.-caml_apply4
	.text
	.align	16
	.globl	caml_apply3
caml_apply3:
	.cfi_startproc
	subq	$24, %rsp
	.cfi_adjust_cfa_offset	24
.L544:
	movq	8(%rsi), %rdx
	cmpq	$7, %rdx
	jne	.L543
	movq	16(%rsi), %rdx
	addq	$24, %rsp
	.cfi_adjust_cfa_offset	-24
	jmp	*%rdx
	.cfi_adjust_cfa_offset	24
	.align	4
.L543:
	movq	%rdi, 8(%rsp)
	movq	%rbx, 0(%rsp)
	movq	(%rsi), %rdi
	movq	%rsi, %rbx
	call	*%rdi
.L545:
	movq	%rax, %rbx
	movq	(%rbx), %rdi
	movq	0(%rsp), %rax
	call	*%rdi
.L546:
	movq	%rax, %rbx
	movq	(%rbx), %rdi
	movq	8(%rsp), %rax
	addq	$24, %rsp
	.cfi_adjust_cfa_offset	-24
	jmp	*%rdi
	.cfi_adjust_cfa_offset	24
	.cfi_endproc
	.type	caml_apply3,@function
	.size	caml_apply3,.-caml_apply3
	.text
	.align	16
	.globl	caml_apply2
caml_apply2:
	.cfi_startproc
	subq	$8, %rsp
	.cfi_adjust_cfa_offset	8
.L548:
	movq	8(%rdi), %rsi
	cmpq	$5, %rsi
	jne	.L547
	movq	16(%rdi), %rsi
	addq	$8, %rsp
	.cfi_adjust_cfa_offset	-8
	jmp	*%rsi
	.cfi_adjust_cfa_offset	8
	.align	4
.L547:
	movq	%rbx, 0(%rsp)
	movq	(%rdi), %rsi
	movq	%rdi, %rbx
	call	*%rsi
.L549:
	movq	%rax, %rbx
	movq	(%rbx), %rdi
	movq	0(%rsp), %rax
	addq	$8, %rsp
	.cfi_adjust_cfa_offset	-8
	jmp	*%rdi
	.cfi_adjust_cfa_offset	8
	.cfi_endproc
	.type	caml_apply2,@function
	.size	caml_apply2,.-caml_apply2
	.data
	.globl	caml_exn_Out_of_memory
	.quad	1024
caml_exn_Out_of_memory:
	.quad	.Ld1
	.quad	2300
.Ld1:
	.ascii	"Out_of_memory"
	.space	2
	.byte	2
	.globl	caml_bucket_Out_of_memory
	.quad	1024
caml_bucket_Out_of_memory:
	.quad	caml_exn_Out_of_memory
	.data
	.globl	caml_exn_Sys_error
	.quad	1024
caml_exn_Sys_error:
	.quad	.Ld2
	.quad	2300
.Ld2:
	.ascii	"Sys_error"
	.space	6
	.byte	6
	.globl	caml_bucket_Sys_error
	.quad	1024
caml_bucket_Sys_error:
	.quad	caml_exn_Sys_error
	.data
	.globl	caml_exn_Failure
	.quad	1024
caml_exn_Failure:
	.quad	.Ld3
	.quad	1276
.Ld3:
	.ascii	"Failure"
	.byte	0
	.globl	caml_bucket_Failure
	.quad	1024
caml_bucket_Failure:
	.quad	caml_exn_Failure
	.data
	.globl	caml_exn_Invalid_argument
	.quad	1024
caml_exn_Invalid_argument:
	.quad	.Ld4
	.quad	3324
.Ld4:
	.ascii	"Invalid_argument"
	.space	7
	.byte	7
	.globl	caml_bucket_Invalid_argument
	.quad	1024
caml_bucket_Invalid_argument:
	.quad	caml_exn_Invalid_argument
	.data
	.globl	caml_exn_End_of_file
	.quad	1024
caml_exn_End_of_file:
	.quad	.Ld5
	.quad	2300
.Ld5:
	.ascii	"End_of_file"
	.space	4
	.byte	4
	.globl	caml_bucket_End_of_file
	.quad	1024
caml_bucket_End_of_file:
	.quad	caml_exn_End_of_file
	.data
	.globl	caml_exn_Division_by_zero
	.quad	1024
caml_exn_Division_by_zero:
	.quad	.Ld6
	.quad	3324
.Ld6:
	.ascii	"Division_by_zero"
	.space	7
	.byte	7
	.globl	caml_bucket_Division_by_zero
	.quad	1024
caml_bucket_Division_by_zero:
	.quad	caml_exn_Division_by_zero
	.data
	.globl	caml_exn_Not_found
	.quad	1024
caml_exn_Not_found:
	.quad	.Ld7
	.quad	2300
.Ld7:
	.ascii	"Not_found"
	.space	6
	.byte	6
	.globl	caml_bucket_Not_found
	.quad	1024
caml_bucket_Not_found:
	.quad	caml_exn_Not_found
	.data
	.globl	caml_exn_Match_failure
	.quad	1024
caml_exn_Match_failure:
	.quad	.Ld8
	.quad	2300
.Ld8:
	.ascii	"Match_failure"
	.space	2
	.byte	2
	.globl	caml_bucket_Match_failure
	.quad	1024
caml_bucket_Match_failure:
	.quad	caml_exn_Match_failure
	.data
	.globl	caml_exn_Stack_overflow
	.quad	1024
caml_exn_Stack_overflow:
	.quad	.Ld9
	.quad	2300
.Ld9:
	.ascii	"Stack_overflow"
	.space	1
	.byte	1
	.globl	caml_bucket_Stack_overflow
	.quad	1024
caml_bucket_Stack_overflow:
	.quad	caml_exn_Stack_overflow
	.data
	.globl	caml_exn_Sys_blocked_io
	.quad	1024
caml_exn_Sys_blocked_io:
	.quad	.Ld10
	.quad	2300
.Ld10:
	.ascii	"Sys_blocked_io"
	.space	1
	.byte	1
	.globl	caml_bucket_Sys_blocked_io
	.quad	1024
caml_bucket_Sys_blocked_io:
	.quad	caml_exn_Sys_blocked_io
	.data
	.globl	caml_exn_Assert_failure
	.quad	1024
caml_exn_Assert_failure:
	.quad	.Ld11
	.quad	2300
.Ld11:
	.ascii	"Assert_failure"
	.space	1
	.byte	1
	.globl	caml_bucket_Assert_failure
	.quad	1024
caml_bucket_Assert_failure:
	.quad	caml_exn_Assert_failure
	.data
	.globl	caml_exn_Undefined_recursive_module
	.quad	1024
caml_exn_Undefined_recursive_module:
	.quad	.Ld12
	.quad	4348
.Ld12:
	.ascii	"Undefined_recursive_module"
	.space	5
	.byte	5
	.globl	caml_bucket_Undefined_recursive_module
	.quad	1024
caml_bucket_Undefined_recursive_module:
	.quad	caml_exn_Undefined_recursive_module
	.data
	.globl	caml_globals
caml_globals:
	.quad	camlPervasives
	.quad	camlArray
	.quad	camlList
	.quad	camlChar
	.quad	camlString
	.quad	camlSys
	.quad	camlSort
	.quad	camlMarshal
	.quad	camlObj
	.quad	camlInt32
	.quad	camlInt64
	.quad	camlNativeint
	.quad	camlLexing
	.quad	camlParsing
	.quad	camlSet
	.quad	camlMap
	.quad	camlStack
	.quad	camlQueue
	.quad	camlCamlinternalLazy
	.quad	camlLazy
	.quad	camlStream
	.quad	camlBuffer
	.quad	camlPrintf
	.quad	camlArg
	.quad	camlPrintexc
	.quad	camlGc
	.quad	camlDigest
	.quad	camlRandom
	.quad	camlHashtbl
	.quad	camlFormat
	.quad	camlScanf
	.quad	camlCallback
	.quad	camlCamlinternalOO
	.quad	camlOo
	.quad	camlCamlinternalMod
	.quad	camlGenlex
	.quad	camlWeak
	.quad	camlFilename
	.quad	camlComplex
	.quad	camlArrayLabels
	.quad	camlListLabels
	.quad	camlStringLabels
	.quad	camlMoreLabels
	.quad	camlStdLabels
	.quad	camlMisc
	.quad	camlTbl
	.quad	camlConfig
	.quad	camlClflags
	.quad	camlTerminfo
	.quad	camlCcomp
	.quad	camlWarnings
	.quad	camlConsistbl
	.quad	camlLocation
	.quad	camlLongident
	.quad	camlSyntaxerr
	.quad	camlParser
	.quad	camlLexer
	.quad	camlParse
	.quad	camlPrintast
	.quad	camlIdent
	.quad	camlPath
	.quad	camlPrimitive
	.quad	camlTypes
	.quad	camlBtype
	.quad	camlOprint
	.quad	camlSubst
	.quad	camlPredef
	.quad	camlDatarepr
	.quad	camlCmi_format
	.quad	camlEnv
	.quad	camlTypedtree
	.quad	camlPrinttyped
	.quad	camlCtype
	.quad	camlPrinttyp
	.quad	camlIncludeclass
	.quad	camlMtype
	.quad	camlIncludecore
	.quad	camlIncludemod
	.quad	camlTypetexp
	.quad	camlParmatch
	.quad	camlCmt_format
	.quad	camlStypes
	.quad	camlTypecore
	.quad	camlTypedecl
	.quad	camlTypeclass
	.quad	camlTypemod
	.quad	camlLambda
	.quad	camlPrintlambda
	.quad	camlTypeopt
	.quad	camlSwitch
	.quad	camlMatching
	.quad	camlTranslobj
	.quad	camlTranslcore
	.quad	camlTranslclass
	.quad	camlTranslmod
	.quad	camlSimplif
	.quad	camlRuntimedef
	.quad	camlPparse
	.quad	camlMain_args
	.quad	camlUnix
	.quad	camlUnixLabels
	.quad	camlQmlContext
	.quad	camlStr
	.quad	camlProgram
	.quad	0
	.data
	.globl	caml_globals_map
	.quad	643324
caml_globals_map:
	.ascii	"\204\225\246\276\0\0\23\207\0\0\2p\0\0\12\271\0\0\10\266\240\300*Pervasives0H6\302T\360\352\312\331/\277g\253\305%\375\332\60\7\30\32X\307\6\267\206C\317|\320\247\354\64\216\240\4\4@\240\300%Array0"
	.ascii	"M^\373\251\36\307\12\315{\30O\324\262wp\214\60\376\61$\34\302b\264\231\276Z\27\134A\211\363\71\240\4\4@\240\300$List0\275|f,\11\350P0jb\301/\355^\365\316\60\346\337\34\7\362\357H],\34\34\303szc\305\240\4"
	.ascii	"\4@\240\300$Char0&\223\210\232)\232\22\71_=J(\201B\336m0TbZ\35KcH\315\230\27\213\334e\224\230\305\240\4\4@\240\300&String0T\272&\205\346\355\25GSq\216\234\213\354\262\213\60\12\206\347\13\277\220"
	.ascii	"\245\240\34\3N\267\313\257\213S\240\4\4@\240\300#Sys0E\321u%\333B&\24\301\314\204\262\331\362y&0W\324\2ik\214\304\231[{g\366\237\67+\307\240\4\4@\240\300$Sort0m\334\330\204\220\31\63I\304[\311\272\356\224"
	.ascii	"\32\304\60\354\304\6o\10\5\375h\331\354\351\205C\252\371$\240\4\4@\240\300'Marshal0}5\351\65\323U\265\362\261an\326R\337\234\246\60^/P\15(a\333f74\346\235\322\210M2\240\4\4@\240\300#Obj0\255\227"
	.ascii	"{B+\275\345,\326\315;\235\4\327\35\261\60q\372\36;\341\230\311\10\344Nq_\314\353\244\220\240\4\4@\240\300%Int320&Y(y\214\13\212c\372H\317\232\302\2\360\316\60\225\370=en\343\376:\300.\305\242#\301\31\241\240\4\4"
	.ascii	"@\240\300%Int640\15^\315\215\377\317\372\304:\354.\276B};\336\60s\14\277\364\255\30\177\350V\37\351\215t\315\223H\240\4\4@\240\300)Nativeint0\272G$\346)@\20p\342\237\13hc\360\213$0\333\256\240"
	.ascii	"]\360\254\353\332\305\32\354g~\366eT\240\4\4@\240\300&Lexing0~0f\3\275\332\233[LP\321\252\310\336\361*0\37cXQ[\326o\361\341\201\203\247\271\261\264\66\240\4\4@\240\300'Parsing0\204\305\340\200\332"
	.ascii	" \326\323\24\34R\22\7\203\323Y0\341~\0\6\316\260\13\227\32\223\243\344\10\216\344\300\240\4\4@\240\300#Set0\247\275\330*\275*V\11\300$.Q\357C\312\313\60%d?\260&\5sZg\260\344\342\211\204\347\332\240\4\4@\240\300#M"
	.ascii	"ap0\33\346\273t\204\255 \0WWv\263\215B?/0\274\277r(He\250\253\311\204\67g\300\311\275y\240\4\4@\240\300%Stack0&\200\373(J\207\35\343\243\313h\336\313\353l?0\370\251\367\262\347\323\211\24\10\12W\30=\257"
	.ascii	"_M\240\4\4@\240\300%Queue0\236Gp\206\232NW\365\333\61-\177\335^h\20\60\260j!=\21\15\270\254}X\212\226Z\361\263\210\240\4\4@\240\300\60CamlinternalLazy0~Oa\360\253\300\334K"
	.ascii	"\270tGB\232\334\370\212\60\336\65d\274j\360\267Y.\322:\244\252\177\311\374\240\4\4@\240\300$Lazy0\276\23G\15T\273\272 \200\341mO\206N\303K0{\337\352{\206\266I\37\307\241\315\7U\347\42\365\240\4\4@\240\300&Str"
	.ascii	"eam0\205\322Y\351\243vH\231\213l\3\265Q\326\216F0\303*3Q\213T\373fu\240\365\62,\360\67&\240\4\4@\240\300&Buffer0?l\231G!W<\237\213T\21\346\202BI\364\60\376\21\2\316\247\225\307\11\250\266\354u"
	.ascii	"\222sd\274\240\4\4@\240\300&Printf0\20\374\244L\221,\223B\317=a\31\204\324.40\366\257\245\204\247\333!\205\212\270\260\202-[\377\367\240\4\4@\240\300#Arg0\11\22\256\67\242}-}\30\211\373\134\7+\177\5\60\244"
	.ascii	"t\340\301\200\345\303d\13\303\354\377\361+\234\350\240\4\4@\240\300(Printexc0\25vIF#\317\235g\10\203\300\251\335\351\224\256\60\211\25\237\263\314\223g\332P\262f\260\316\344\65\337\240\4\4@\240\300\42Gc0#\270\320g\370\203"
	.ascii	"\367\242\30\304\224ZBbZ10\10Z\372a;\201L\207\16Q\243H;2\267N\240\4\4@\240\300&Digest0\374\35\333\347r\234\6\361U\34ATy[;l09&\253\372\134c\215\241\312\3\330\345E\203\215\375\240\4\4@\240\300"
	.ascii	"&Random0\372\353\31\307o7\343\307p\376\335\343\233\352\31r0\242\215L\255\315]f\361\277`#D$\302$b\240\4\4@\240\300'Hashtbl0q\214\326\316\213\301\203q\316\42H>6/x\264\60\371~\231\357\311\0\201"
	.ascii	"\2\353\313\203\322\337i\224\226\240\4\4@\240\300&Format0nk{u\305D\357L\246s\247c\256\310\5\257\60\1\314\340\201\363\204\350:\350-\233\356V\301~\343\240\4\4@\240\300%Scanf0k\241\244\221\206\273=\363\273_\255"
	.ascii	":\236\177\343\332\60\70V\25\264\277/\266:\202\213\214\26h\22\35X\240\4\4@\240\300(Callback0o\326\324{/j\27\32I6!\274^\333\373\62\60\231\260*\0\205\224\355O\1\310f\1l\317Y\307\240\4\4@\240\300.Ca"
	.ascii	"mlinternalOO0\215\345]\21\267q\306?bp\307\7\303\300\370\33\60\353\257\15\277\207\10R\270g\320\203\342c\332\323\223\240\4\4@\240\300\42Oo0:\243\251\260\256A\246\67\372H\301F\234\362\351\246\60\226\1L\14\2\350B"
	.ascii	"\315\27+\266S?\37\36\303\240\4\4@\240\300/CamlinternalMod0\365q\31\236\374\15\222\360\361\347\3\31\20\263\177\70\60\67\305\36\371\13dU\246\327\243\332\210U6\253C\240\4\4@\240\300&Genlex0r"
	.ascii	"@^cS\352T>\31\245=+\307\202\213d0\34\202\17\336\273db\365s\36\263J\262h\306\212\240\4\4@\240\300$Weak0n\311\356\13M\24\266\321\370\302\0?\235\227\21\257\60\207\371\5\20\274\313\265:\256oc\312\375\277%\34\240\4\4"
	.ascii	"@\240\300(Filename0\333\31\256\262\250\327\351\275\17LT\325\34jC>0\201\24D\250\37i'\361\337\362\234>M\344\30\10\240\4\4@\240\300'Complex0\25\367\35\367\27\236\205\366\317\275\253\337\274\236\254\257\60\377,"
	.ascii	"\254\211#\305\70\17$\244b\33\357\21*\224\240\4\4@\240\300+ArrayLabels0%\343G\36\24r\2c\32\371F\374\342\245z\261\60\327.j\233Bs\226\355 s\134\332\355\350\217\14\240\4\4@\240\300*ListLab"
	.ascii	"els0m\244\267\354U\225\2k\235\246\260\242\24I`\245\60\333\67\327\266\371za\212\24\226(]\317\24\20~\240\4\4@\240\300,StringLabels0Ry\345\134\3\33\345]\334R\271\362<RT 0\262\42\224\33\246\272"
	.ascii	"\1A\241\277@{\200W-\334\240\4\4@\240\300*MoreLabels0l|uN\257{\320\361\322\232\357\370\307\264M\10\60\331\300\371\300\365<v\336\34\261v\20\25\313x\223\240\4\4@\240\300)StdLabels0\250#"
	.ascii	"TZ|\277\330V\351\61\325\346\62\202\16;0WxD\266\206\300\321E\371g\322\302\201R\306/\240\4\4@\240\300$Misc0T\250\367U2\224\331*\241O\242\344T\275\311\217\60\231\22h\363\351mq\263\246q\267\312V\4(\3\240\4\4@"
	.ascii	"\240\300#Tbl0M\5\301\331\30\375\243\202Lz \312\355%3\362\60\205-\262\235\377K\11-B\12A\361\335\31\34\177\240\4\4@\240\300&Config0\200\202\316\42\351\364j{\33Y\326\340S$\334\256\60\314gG\217\350\331\224\13\216"
	.ascii	"\36\205(S\307\70\35\240\4\4@\240\300'Clflags0\261\315\227{\273\315\207\276\203\300g\256.\16\335\221\60j\310\33\3k\225\311\71(\32\357H*\275\231\336\240\4\4@\240\300(Terminfo0\220\301\26y\341\65\301\11&"
	.ascii	"\227\36\20\345\353\357\272\60P'vL@\310l)`\245\306\332\332OFh\240\4\4@\240\300%Ccomp0\34\254h\330[6[g\310\226\200`B8(\315\60\277LSh\342\277\10\7~/\11\211ut~r\240\4\4@\240\300(War"
	.ascii	"nings0\42\326\204\276\364O]-(Jg\213\134x,\352\60\367\4\224k\1\225\61Q@<\323\273*\226\225\301\240\4\4@\240\300)Consistbl0\227\344\236\227\331\222\352\66\236n\325\31S\224s\242\60p\355\253\314\370\341\223"
	.ascii	"C\4\304\232\22\233\252\213\64\240\4\4@\240\300(Location0\273\213\15Ik\223\313\230/\16\252\247\231\340\300\13\60\352d\11=8I\276&\373\225\243gDC\233\330\240\4\4@\240\300)Longident0BLl\27="
	.ascii	"\331\4\342\61\251\6}A\307}f0\306\333r\330J\363\362\61G\212#\322\61\33\244\304\240\4\4@\240\300)Syntaxerr0v\36\315\373\320\71\0\375\356Rw~\257\14N\326\60\252\244\272myo=e\25F=\341_\316S\324\240\4"
	.ascii	"\4@\240\300&Parser0My\361\13\243\63;O\11q\321\345\0\206\275!0\34\62\360\242Sw+\260\277\15\66_\256\310\306\246\240\4\4@\240\300%Lexer0(\303O\6\257\134\2\236Xt\250\273\25\364<\371\60\367p!I\207"
	.ascii	"P\305\33\327\2=\337\343\207\67\243\240\4\4@\240\300%Parse0\316\237\326j~[\245\273h\303@\324\303\303n\217\60\36R\265\70\42\353\71\340\0\0\344\375\4\33eX\240\4\4@\240\300(Printast0'\37\211\361\345\302\33"
	.ascii	"\7yk\354\240\336\236?\346\60\235f\342\301\372\134\237\252\314\265\237u\256\330K\27\240\4\4@\240\300%Ident0\306\223\341s\271\332\240O\20\265\314V\261*\240i0\13\221\321\10B[s\266\227\236A2b\364\65\11\240\4\4@\240\300$P"
	.ascii	"ath0M\30W=\221\253\323\16\252\16?\230\217\273z\234\60\315\22}\262\347\327\346U\312\321,8\222\14\255\333\240\4\4@\240\300)Primitive0\351]\310C4\374\364xw\324o\23\246\240\325\300\60\134\31\16\236oU\277\302\272"
	.ascii	"\211\250\307\351a\7\222\240\4\4@\240\300%Types0\246\316\252\366E\233\15-\24\323\240\245\23\376a\14\60\360\245O\270{*\3J'-C`\177\62\340\357\240\4\4@\240\300%Btype0\31a\14\347Y\211\235\302\317\360\352\32ne"
	.ascii	"\311P0\30\263l\246q\256n.\254$]\31\216\327\270V\240\4\4@\240\300&Oprint0H\14\237Q\17\240\25\370\250\242\326\71\32W\252\371\60-os\267\243\227\316\345\205\30\307\206Om~'\240\4\4@\240\300%Subst0D"
	.ascii	"U\320\30\25\364\66c\251\314\205=\17\24\234/0\14|\25\330J\242\200K\42\13\316\234\11\357=\337\240\4\4@\240\300&Predef0\360\305\204\63\203l+\271q.\317\357\324\42\327=0P\305\300\313\63R/W\7fd\253Tbjh\240"
	.ascii	"\4\4@\240\300(Datarepr0\232w\361\201\352\37A\3[\201\372 p+\323\223\60\42\307\23]\343\261NKC\352\354\12\306\64\232\342\240\4\4@\240\300*Cmi_format0\340\353\272\367\273\265\273\220%x\33\364\314\243"
	.ascii	"\250$0\134|:zY\177\321QSE(s\300f\321u\240\4\4@\240\300#Env0V\250\235[z\267\255\17\270\22\200\336\261\67\276\265\60)\32\326Z\344_\314\366&?o|\177r\324\351\240\4\4@\240\300)Typedtree0"
	.ascii	"U\267\247\217\217\35=\366Q+)5\226\206\331\14\60\254\220\273\217,\362,\277/\375 ^gL<\261\240\4\4@\240\300*Printtyped0\313\347\61kht\12\210\362\220\323\377.\215\306\252\60\37p\247\65\201\235\20%\271\264\266\340"
	.ascii	"\323n\370\242\240\4\4@\240\300%Ctype0\36\70\211=\336\211C Y\134\207\267\67\200\60\21\60%\270\255\200\327\245\301\222jBS\22\345A\6\64\240\4\4@\240\300(Printtyp07=\237\275@\325sI\221\223p\5|("
	.ascii	"\250X0\301\14\263/0\20\241\134\0?-\277\5.\252\345\240\4\4@\240\300,Includeclass0=\306@\250dI\320g\300\241\311\265\344\376\233`0\243j\14\367e6Y\30\310I\362\65%\201\337<\240\4\4@\240\300%M"
	.ascii	"type0\32\272+\24J\377\63@O\31\236u\15\231\377\242\60\365+X\277\232\61\25\4\304\204\0\6\12\63\311I\240\4\4@\240\300+Includecore0\216M\354}\32=\134\264\321P\236\16%/\363\262\60\365\270K\356!\346"
	.ascii	"H~84F\6n\25\364\250\240\4\4@\240\300*Includemod0\245\244\365\331&\370\366\60\5\360-G\206s\222\335\60\300\306\306\264\206\364\203\303\211\243{\31\330\64_8\240\4\4@\240\300(Typetexp0K\312K"
	.ascii	"\321t}\20\14\63\243\313\345\272\231\21\322\60\344\331\332\245:Y\277o\277\350\34^\274\71%\313\240\4\4@\240\300(Parmatch0^A\251\17 d\15\61U\177\226\263v\212\13\364\60:\226\313C\313\63\266L\331\226\235\36\316\341\377\257\240"
	.ascii	"\4\4@\240\300*Cmt_format0\271\62\355\227\266\1\300Gr%\332\244V,r\254\60\311\23\373\352\250\213(\313\357X\362\316\20U\11\330\240\4\4@\240\300&Stypes0\314\306]\3k\252\224^J\317\0\66\242\10\351\63"
	.ascii	"0\360\325*\367\327u\31\252s\21J\235\270u\237\364\240\4\4@\240\300(Typecore0\305\266\11\235\334\263U\213 \211\233\234\304\244\231\16\60v\311\322\317y\240\233\311\256\331\271\216\307\334\0N\240\4\4@\240\300(Typedec"
	.ascii	"l0\312\352\345\332\7'\340Z\134'\300\352_{%\334\60D\210.W\24I\223\300\264\340\236\12\316\353\325\343\240\4\4@\240\300)Typeclass0\207n3\204\16\336\70\212J\362\20z\10\300\63_0\31.\220\372\224\255\350tr\323\326"
	.ascii	"< <B\316\240\4\4@\240\300'Typemod0\203Kn\23\273\5\251\310W[\34\16/8\271?0;\360\0\261U\177\257\312\325o\254\305\350\10'\252\240\4\4@\240\300&Lambda0\311s+\0\324\12\334E\271\372\266\344\30"
	.ascii	"\221\16\352\60\244l\1\370\322IF~\275N\300\60\250\260\61A\240\4\4@\240\300+Printlambda0\342B)\365\260\263\313\254~xu\36\305\354\273\332\60Y3Y\276[\37\322B\23\10\0\231]\274\240\250\240\4\4@\240\300'T"
	.ascii	"ypeopt0\302\0\223\371\374\205\264\304\244\202\3\217k\364\226\307\60-\250Ole\254\20\223\372LE\22Lg\311%\240\4\4@\240\300&Switch0\11\213'\211\207\31\366;\231T\324(\7T\3i08o\24\345\212\63E?\203"
	.ascii	"\370\347\374\317\230#\202\240\4\4@\240\300(Matching0\37\204\215\70\276\35\270\241\375\312\315\64\323\272\201z0|\305qq\215\30\363\15\13.\3\350\337\62\252R\240\4\4@\240\300)Translobj0\335\325\16\200b%\264"
	.ascii	"H\332\4\263r|6\365\227\60}0\256\256\236d\322\272k\4\230\347\13!8\327\240\4\4@\240\300*Translcore0\265?\30\16Q\335\1\200\320VE\134\332\210\37\4\60\36\236\5v\1Q\11\370LP;\366\227!Z^\240\4\4"
	.ascii	"@\240\300+Translclass0'\211,\262\333\265Y2\223\255\327+>K\375\313\60\231@?}\311\366\377\312\361\215\274\251qw\202I\240\4\4@\240\300)Translmod0[\31\24i\177-\265\310\240\336\323\22\263\250"
	.ascii	"X!0t\200.F\365\305x)T\334\15=\201\7\245\243\240\4\4@\240\300'Simplif0K\365%\227\4\202\303G\237?\231*\322\15WN0br\30\17 \264\13E#k\37\201\265\266\353\70\240\4\4@\240\300*Runtim"
	.ascii	"edef0i\324S\264\4\11\321\376\202\373\205U!\360K\273\60\26\5\223Li\254\22\310\20\246\6\15\317\305\362\24\240\4\4@\240\300&Pparse0\231\23\22\62\226.\266\64\242\230\347`\326>\200\0\60q\12\200\177l\14;F\207\13\315"
	.ascii	"\370\255\262\34\65\240\4\4@\240\300)Main_args0k\376\67\65d)\372\370\271#\370d\202\327\12\4\60\255l\351\270\60\31\365q f@\303\17\36P\305\240\4\4@\240\300$Unix0\266\277\333\203\363\214f]\227\374\17\62)"
	.ascii	"#1\37\60\2u\2\356\361`\366\357S\234\224\321\17J=\220\240\4\4@\240\300*UnixLabels0ax\242~\355\272\324)Y\340\255_\200\243$j0\315\322\27\363EwN\244\202\20\372a\15$#^\240\4\4@\240\300*Qm"
	.ascii	"lContext0Jz\270\326\22U,:\320Av\353\366\20;\360\60G\365\13\330\204\207\317\271m\246\323u\240\204\254\370\240\4\4@\240\300#Str0\344*\255\217\262\15T\335\277\366\261\256%D\352\3\60\306\331\235x\361DF\352&A"
	.ascii	"\200\326\242\201E\232\240\4\4@\240\300'Program0\230\177v\16\211\30J\212l\6\316w\316\370\25\366\60f\250\327\321|\336\351\202'|\214G\177\226\246\340\240\4\4@@"
	.space	4
	.byte	4
	.data
	.globl	caml_data_segments
caml_data_segments:
	.quad	caml_startup__data_begin
	.quad	caml_startup__data_end
	.quad	camlPervasives__data_begin
	.quad	camlPervasives__data_end
	.quad	camlArray__data_begin
	.quad	camlArray__data_end
	.quad	camlList__data_begin
	.quad	camlList__data_end
	.quad	camlChar__data_begin
	.quad	camlChar__data_end
	.quad	camlString__data_begin
	.quad	camlString__data_end
	.quad	camlSys__data_begin
	.quad	camlSys__data_end
	.quad	camlSort__data_begin
	.quad	camlSort__data_end
	.quad	camlMarshal__data_begin
	.quad	camlMarshal__data_end
	.quad	camlObj__data_begin
	.quad	camlObj__data_end
	.quad	camlInt32__data_begin
	.quad	camlInt32__data_end
	.quad	camlInt64__data_begin
	.quad	camlInt64__data_end
	.quad	camlNativeint__data_begin
	.quad	camlNativeint__data_end
	.quad	camlLexing__data_begin
	.quad	camlLexing__data_end
	.quad	camlParsing__data_begin
	.quad	camlParsing__data_end
	.quad	camlSet__data_begin
	.quad	camlSet__data_end
	.quad	camlMap__data_begin
	.quad	camlMap__data_end
	.quad	camlStack__data_begin
	.quad	camlStack__data_end
	.quad	camlQueue__data_begin
	.quad	camlQueue__data_end
	.quad	camlCamlinternalLazy__data_begin
	.quad	camlCamlinternalLazy__data_end
	.quad	camlLazy__data_begin
	.quad	camlLazy__data_end
	.quad	camlStream__data_begin
	.quad	camlStream__data_end
	.quad	camlBuffer__data_begin
	.quad	camlBuffer__data_end
	.quad	camlPrintf__data_begin
	.quad	camlPrintf__data_end
	.quad	camlArg__data_begin
	.quad	camlArg__data_end
	.quad	camlPrintexc__data_begin
	.quad	camlPrintexc__data_end
	.quad	camlGc__data_begin
	.quad	camlGc__data_end
	.quad	camlDigest__data_begin
	.quad	camlDigest__data_end
	.quad	camlRandom__data_begin
	.quad	camlRandom__data_end
	.quad	camlHashtbl__data_begin
	.quad	camlHashtbl__data_end
	.quad	camlFormat__data_begin
	.quad	camlFormat__data_end
	.quad	camlScanf__data_begin
	.quad	camlScanf__data_end
	.quad	camlCallback__data_begin
	.quad	camlCallback__data_end
	.quad	camlCamlinternalOO__data_begin
	.quad	camlCamlinternalOO__data_end
	.quad	camlOo__data_begin
	.quad	camlOo__data_end
	.quad	camlCamlinternalMod__data_begin
	.quad	camlCamlinternalMod__data_end
	.quad	camlGenlex__data_begin
	.quad	camlGenlex__data_end
	.quad	camlWeak__data_begin
	.quad	camlWeak__data_end
	.quad	camlFilename__data_begin
	.quad	camlFilename__data_end
	.quad	camlComplex__data_begin
	.quad	camlComplex__data_end
	.quad	camlArrayLabels__data_begin
	.quad	camlArrayLabels__data_end
	.quad	camlListLabels__data_begin
	.quad	camlListLabels__data_end
	.quad	camlStringLabels__data_begin
	.quad	camlStringLabels__data_end
	.quad	camlMoreLabels__data_begin
	.quad	camlMoreLabels__data_end
	.quad	camlStdLabels__data_begin
	.quad	camlStdLabels__data_end
	.quad	camlMisc__data_begin
	.quad	camlMisc__data_end
	.quad	camlTbl__data_begin
	.quad	camlTbl__data_end
	.quad	camlConfig__data_begin
	.quad	camlConfig__data_end
	.quad	camlClflags__data_begin
	.quad	camlClflags__data_end
	.quad	camlTerminfo__data_begin
	.quad	camlTerminfo__data_end
	.quad	camlCcomp__data_begin
	.quad	camlCcomp__data_end
	.quad	camlWarnings__data_begin
	.quad	camlWarnings__data_end
	.quad	camlConsistbl__data_begin
	.quad	camlConsistbl__data_end
	.quad	camlLocation__data_begin
	.quad	camlLocation__data_end
	.quad	camlLongident__data_begin
	.quad	camlLongident__data_end
	.quad	camlSyntaxerr__data_begin
	.quad	camlSyntaxerr__data_end
	.quad	camlParser__data_begin
	.quad	camlParser__data_end
	.quad	camlLexer__data_begin
	.quad	camlLexer__data_end
	.quad	camlParse__data_begin
	.quad	camlParse__data_end
	.quad	camlPrintast__data_begin
	.quad	camlPrintast__data_end
	.quad	camlIdent__data_begin
	.quad	camlIdent__data_end
	.quad	camlPath__data_begin
	.quad	camlPath__data_end
	.quad	camlPrimitive__data_begin
	.quad	camlPrimitive__data_end
	.quad	camlTypes__data_begin
	.quad	camlTypes__data_end
	.quad	camlBtype__data_begin
	.quad	camlBtype__data_end
	.quad	camlOprint__data_begin
	.quad	camlOprint__data_end
	.quad	camlSubst__data_begin
	.quad	camlSubst__data_end
	.quad	camlPredef__data_begin
	.quad	camlPredef__data_end
	.quad	camlDatarepr__data_begin
	.quad	camlDatarepr__data_end
	.quad	camlCmi_format__data_begin
	.quad	camlCmi_format__data_end
	.quad	camlEnv__data_begin
	.quad	camlEnv__data_end
	.quad	camlTypedtree__data_begin
	.quad	camlTypedtree__data_end
	.quad	camlPrinttyped__data_begin
	.quad	camlPrinttyped__data_end
	.quad	camlCtype__data_begin
	.quad	camlCtype__data_end
	.quad	camlPrinttyp__data_begin
	.quad	camlPrinttyp__data_end
	.quad	camlIncludeclass__data_begin
	.quad	camlIncludeclass__data_end
	.quad	camlMtype__data_begin
	.quad	camlMtype__data_end
	.quad	camlIncludecore__data_begin
	.quad	camlIncludecore__data_end
	.quad	camlIncludemod__data_begin
	.quad	camlIncludemod__data_end
	.quad	camlTypetexp__data_begin
	.quad	camlTypetexp__data_end
	.quad	camlParmatch__data_begin
	.quad	camlParmatch__data_end
	.quad	camlCmt_format__data_begin
	.quad	camlCmt_format__data_end
	.quad	camlStypes__data_begin
	.quad	camlStypes__data_end
	.quad	camlTypecore__data_begin
	.quad	camlTypecore__data_end
	.quad	camlTypedecl__data_begin
	.quad	camlTypedecl__data_end
	.quad	camlTypeclass__data_begin
	.quad	camlTypeclass__data_end
	.quad	camlTypemod__data_begin
	.quad	camlTypemod__data_end
	.quad	camlLambda__data_begin
	.quad	camlLambda__data_end
	.quad	camlPrintlambda__data_begin
	.quad	camlPrintlambda__data_end
	.quad	camlTypeopt__data_begin
	.quad	camlTypeopt__data_end
	.quad	camlSwitch__data_begin
	.quad	camlSwitch__data_end
	.quad	camlMatching__data_begin
	.quad	camlMatching__data_end
	.quad	camlTranslobj__data_begin
	.quad	camlTranslobj__data_end
	.quad	camlTranslcore__data_begin
	.quad	camlTranslcore__data_end
	.quad	camlTranslclass__data_begin
	.quad	camlTranslclass__data_end
	.quad	camlTranslmod__data_begin
	.quad	camlTranslmod__data_end
	.quad	camlSimplif__data_begin
	.quad	camlSimplif__data_end
	.quad	camlRuntimedef__data_begin
	.quad	camlRuntimedef__data_end
	.quad	camlPparse__data_begin
	.quad	camlPparse__data_end
	.quad	camlMain_args__data_begin
	.quad	camlMain_args__data_end
	.quad	camlUnix__data_begin
	.quad	camlUnix__data_end
	.quad	camlUnixLabels__data_begin
	.quad	camlUnixLabels__data_end
	.quad	camlQmlContext__data_begin
	.quad	camlQmlContext__data_end
	.quad	camlStr__data_begin
	.quad	camlStr__data_end
	.quad	camlProgram__data_begin
	.quad	camlProgram__data_end
	.quad	0
	.data
	.globl	caml_code_segments
caml_code_segments:
	.quad	caml_startup__code_begin
	.quad	caml_startup__code_end
	.quad	camlPervasives__code_begin
	.quad	camlPervasives__code_end
	.quad	camlArray__code_begin
	.quad	camlArray__code_end
	.quad	camlList__code_begin
	.quad	camlList__code_end
	.quad	camlChar__code_begin
	.quad	camlChar__code_end
	.quad	camlString__code_begin
	.quad	camlString__code_end
	.quad	camlSys__code_begin
	.quad	camlSys__code_end
	.quad	camlSort__code_begin
	.quad	camlSort__code_end
	.quad	camlMarshal__code_begin
	.quad	camlMarshal__code_end
	.quad	camlObj__code_begin
	.quad	camlObj__code_end
	.quad	camlInt32__code_begin
	.quad	camlInt32__code_end
	.quad	camlInt64__code_begin
	.quad	camlInt64__code_end
	.quad	camlNativeint__code_begin
	.quad	camlNativeint__code_end
	.quad	camlLexing__code_begin
	.quad	camlLexing__code_end
	.quad	camlParsing__code_begin
	.quad	camlParsing__code_end
	.quad	camlSet__code_begin
	.quad	camlSet__code_end
	.quad	camlMap__code_begin
	.quad	camlMap__code_end
	.quad	camlStack__code_begin
	.quad	camlStack__code_end
	.quad	camlQueue__code_begin
	.quad	camlQueue__code_end
	.quad	camlCamlinternalLazy__code_begin
	.quad	camlCamlinternalLazy__code_end
	.quad	camlLazy__code_begin
	.quad	camlLazy__code_end
	.quad	camlStream__code_begin
	.quad	camlStream__code_end
	.quad	camlBuffer__code_begin
	.quad	camlBuffer__code_end
	.quad	camlPrintf__code_begin
	.quad	camlPrintf__code_end
	.quad	camlArg__code_begin
	.quad	camlArg__code_end
	.quad	camlPrintexc__code_begin
	.quad	camlPrintexc__code_end
	.quad	camlGc__code_begin
	.quad	camlGc__code_end
	.quad	camlDigest__code_begin
	.quad	camlDigest__code_end
	.quad	camlRandom__code_begin
	.quad	camlRandom__code_end
	.quad	camlHashtbl__code_begin
	.quad	camlHashtbl__code_end
	.quad	camlFormat__code_begin
	.quad	camlFormat__code_end
	.quad	camlScanf__code_begin
	.quad	camlScanf__code_end
	.quad	camlCallback__code_begin
	.quad	camlCallback__code_end
	.quad	camlCamlinternalOO__code_begin
	.quad	camlCamlinternalOO__code_end
	.quad	camlOo__code_begin
	.quad	camlOo__code_end
	.quad	camlCamlinternalMod__code_begin
	.quad	camlCamlinternalMod__code_end
	.quad	camlGenlex__code_begin
	.quad	camlGenlex__code_end
	.quad	camlWeak__code_begin
	.quad	camlWeak__code_end
	.quad	camlFilename__code_begin
	.quad	camlFilename__code_end
	.quad	camlComplex__code_begin
	.quad	camlComplex__code_end
	.quad	camlArrayLabels__code_begin
	.quad	camlArrayLabels__code_end
	.quad	camlListLabels__code_begin
	.quad	camlListLabels__code_end
	.quad	camlStringLabels__code_begin
	.quad	camlStringLabels__code_end
	.quad	camlMoreLabels__code_begin
	.quad	camlMoreLabels__code_end
	.quad	camlStdLabels__code_begin
	.quad	camlStdLabels__code_end
	.quad	camlMisc__code_begin
	.quad	camlMisc__code_end
	.quad	camlTbl__code_begin
	.quad	camlTbl__code_end
	.quad	camlConfig__code_begin
	.quad	camlConfig__code_end
	.quad	camlClflags__code_begin
	.quad	camlClflags__code_end
	.quad	camlTerminfo__code_begin
	.quad	camlTerminfo__code_end
	.quad	camlCcomp__code_begin
	.quad	camlCcomp__code_end
	.quad	camlWarnings__code_begin
	.quad	camlWarnings__code_end
	.quad	camlConsistbl__code_begin
	.quad	camlConsistbl__code_end
	.quad	camlLocation__code_begin
	.quad	camlLocation__code_end
	.quad	camlLongident__code_begin
	.quad	camlLongident__code_end
	.quad	camlSyntaxerr__code_begin
	.quad	camlSyntaxerr__code_end
	.quad	camlParser__code_begin
	.quad	camlParser__code_end
	.quad	camlLexer__code_begin
	.quad	camlLexer__code_end
	.quad	camlParse__code_begin
	.quad	camlParse__code_end
	.quad	camlPrintast__code_begin
	.quad	camlPrintast__code_end
	.quad	camlIdent__code_begin
	.quad	camlIdent__code_end
	.quad	camlPath__code_begin
	.quad	camlPath__code_end
	.quad	camlPrimitive__code_begin
	.quad	camlPrimitive__code_end
	.quad	camlTypes__code_begin
	.quad	camlTypes__code_end
	.quad	camlBtype__code_begin
	.quad	camlBtype__code_end
	.quad	camlOprint__code_begin
	.quad	camlOprint__code_end
	.quad	camlSubst__code_begin
	.quad	camlSubst__code_end
	.quad	camlPredef__code_begin
	.quad	camlPredef__code_end
	.quad	camlDatarepr__code_begin
	.quad	camlDatarepr__code_end
	.quad	camlCmi_format__code_begin
	.quad	camlCmi_format__code_end
	.quad	camlEnv__code_begin
	.quad	camlEnv__code_end
	.quad	camlTypedtree__code_begin
	.quad	camlTypedtree__code_end
	.quad	camlPrinttyped__code_begin
	.quad	camlPrinttyped__code_end
	.quad	camlCtype__code_begin
	.quad	camlCtype__code_end
	.quad	camlPrinttyp__code_begin
	.quad	camlPrinttyp__code_end
	.quad	camlIncludeclass__code_begin
	.quad	camlIncludeclass__code_end
	.quad	camlMtype__code_begin
	.quad	camlMtype__code_end
	.quad	camlIncludecore__code_begin
	.quad	camlIncludecore__code_end
	.quad	camlIncludemod__code_begin
	.quad	camlIncludemod__code_end
	.quad	camlTypetexp__code_begin
	.quad	camlTypetexp__code_end
	.quad	camlParmatch__code_begin
	.quad	camlParmatch__code_end
	.quad	camlCmt_format__code_begin
	.quad	camlCmt_format__code_end
	.quad	camlStypes__code_begin
	.quad	camlStypes__code_end
	.quad	camlTypecore__code_begin
	.quad	camlTypecore__code_end
	.quad	camlTypedecl__code_begin
	.quad	camlTypedecl__code_end
	.quad	camlTypeclass__code_begin
	.quad	camlTypeclass__code_end
	.quad	camlTypemod__code_begin
	.quad	camlTypemod__code_end
	.quad	camlLambda__code_begin
	.quad	camlLambda__code_end
	.quad	camlPrintlambda__code_begin
	.quad	camlPrintlambda__code_end
	.quad	camlTypeopt__code_begin
	.quad	camlTypeopt__code_end
	.quad	camlSwitch__code_begin
	.quad	camlSwitch__code_end
	.quad	camlMatching__code_begin
	.quad	camlMatching__code_end
	.quad	camlTranslobj__code_begin
	.quad	camlTranslobj__code_end
	.quad	camlTranslcore__code_begin
	.quad	camlTranslcore__code_end
	.quad	camlTranslclass__code_begin
	.quad	camlTranslclass__code_end
	.quad	camlTranslmod__code_begin
	.quad	camlTranslmod__code_end
	.quad	camlSimplif__code_begin
	.quad	camlSimplif__code_end
	.quad	camlRuntimedef__code_begin
	.quad	camlRuntimedef__code_end
	.quad	camlPparse__code_begin
	.quad	camlPparse__code_end
	.quad	camlMain_args__code_begin
	.quad	camlMain_args__code_end
	.quad	camlUnix__code_begin
	.quad	camlUnix__code_end
	.quad	camlUnixLabels__code_begin
	.quad	camlUnixLabels__code_end
	.quad	camlQmlContext__code_begin
	.quad	camlQmlContext__code_end
	.quad	camlStr__code_begin
	.quad	camlStr__code_end
	.quad	camlProgram__code_begin
	.quad	camlProgram__code_end
	.quad	0
	.data
	.globl	caml_frametable
caml_frametable:
	.quad	caml_startup__frametable
	.quad	caml_system__frametable
	.quad	camlPervasives__frametable
	.quad	camlArray__frametable
	.quad	camlList__frametable
	.quad	camlChar__frametable
	.quad	camlString__frametable
	.quad	camlSys__frametable
	.quad	camlSort__frametable
	.quad	camlMarshal__frametable
	.quad	camlObj__frametable
	.quad	camlInt32__frametable
	.quad	camlInt64__frametable
	.quad	camlNativeint__frametable
	.quad	camlLexing__frametable
	.quad	camlParsing__frametable
	.quad	camlSet__frametable
	.quad	camlMap__frametable
	.quad	camlStack__frametable
	.quad	camlQueue__frametable
	.quad	camlCamlinternalLazy__frametable
	.quad	camlLazy__frametable
	.quad	camlStream__frametable
	.quad	camlBuffer__frametable
	.quad	camlPrintf__frametable
	.quad	camlArg__frametable
	.quad	camlPrintexc__frametable
	.quad	camlGc__frametable
	.quad	camlDigest__frametable
	.quad	camlRandom__frametable
	.quad	camlHashtbl__frametable
	.quad	camlFormat__frametable
	.quad	camlScanf__frametable
	.quad	camlCallback__frametable
	.quad	camlCamlinternalOO__frametable
	.quad	camlOo__frametable
	.quad	camlCamlinternalMod__frametable
	.quad	camlGenlex__frametable
	.quad	camlWeak__frametable
	.quad	camlFilename__frametable
	.quad	camlComplex__frametable
	.quad	camlArrayLabels__frametable
	.quad	camlListLabels__frametable
	.quad	camlStringLabels__frametable
	.quad	camlMoreLabels__frametable
	.quad	camlStdLabels__frametable
	.quad	camlMisc__frametable
	.quad	camlTbl__frametable
	.quad	camlConfig__frametable
	.quad	camlClflags__frametable
	.quad	camlTerminfo__frametable
	.quad	camlCcomp__frametable
	.quad	camlWarnings__frametable
	.quad	camlConsistbl__frametable
	.quad	camlLocation__frametable
	.quad	camlLongident__frametable
	.quad	camlSyntaxerr__frametable
	.quad	camlParser__frametable
	.quad	camlLexer__frametable
	.quad	camlParse__frametable
	.quad	camlPrintast__frametable
	.quad	camlIdent__frametable
	.quad	camlPath__frametable
	.quad	camlPrimitive__frametable
	.quad	camlTypes__frametable
	.quad	camlBtype__frametable
	.quad	camlOprint__frametable
	.quad	camlSubst__frametable
	.quad	camlPredef__frametable
	.quad	camlDatarepr__frametable
	.quad	camlCmi_format__frametable
	.quad	camlEnv__frametable
	.quad	camlTypedtree__frametable
	.quad	camlPrinttyped__frametable
	.quad	camlCtype__frametable
	.quad	camlPrinttyp__frametable
	.quad	camlIncludeclass__frametable
	.quad	camlMtype__frametable
	.quad	camlIncludecore__frametable
	.quad	camlIncludemod__frametable
	.quad	camlTypetexp__frametable
	.quad	camlParmatch__frametable
	.quad	camlCmt_format__frametable
	.quad	camlStypes__frametable
	.quad	camlTypecore__frametable
	.quad	camlTypedecl__frametable
	.quad	camlTypeclass__frametable
	.quad	camlTypemod__frametable
	.quad	camlLambda__frametable
	.quad	camlPrintlambda__frametable
	.quad	camlTypeopt__frametable
	.quad	camlSwitch__frametable
	.quad	camlMatching__frametable
	.quad	camlTranslobj__frametable
	.quad	camlTranslcore__frametable
	.quad	camlTranslclass__frametable
	.quad	camlTranslmod__frametable
	.quad	camlSimplif__frametable
	.quad	camlRuntimedef__frametable
	.quad	camlPparse__frametable
	.quad	camlMain_args__frametable
	.quad	camlUnix__frametable
	.quad	camlUnixLabels__frametable
	.quad	camlQmlContext__frametable
	.quad	camlStr__frametable
	.quad	camlProgram__frametable
	.quad	0
	.text
	.globl	caml_startup__code_end
caml_startup__code_end:
	.data
	.globl	caml_startup__data_end
caml_startup__data_end:
	.long	0
	.globl	caml_startup__frametable
caml_startup__frametable:
	.quad	231
	.quad	.L549
	.word	16
	.word	1
	.word	0
	.align	8
	.quad	.L546
	.word	32
	.word	1
	.word	8
	.align	8
	.quad	.L545
	.word	32
	.word	2
	.word	0
	.word	8
	.align	8
	.quad	.L542
	.word	32
	.word	1
	.word	16
	.align	8
	.quad	.L541
	.word	32
	.word	2
	.word	8
	.word	16
	.align	8
	.quad	.L540
	.word	32
	.word	3
	.word	0
	.word	8
	.word	16
	.align	8
	.quad	.L537
	.word	48
	.word	1
	.word	24
	.align	8
	.quad	.L536
	.word	48
	.word	2
	.word	16
	.word	24
	.align	8
	.quad	.L535
	.word	48
	.word	3
	.word	8
	.word	16
	.word	24
	.align	8
	.quad	.L534
	.word	48
	.word	4
	.word	0
	.word	8
	.word	16
	.word	24
	.align	8
	.quad	.L531
	.word	48
	.word	1
	.word	32
	.align	8
	.quad	.L530
	.word	48
	.word	2
	.word	24
	.word	32
	.align	8
	.quad	.L529
	.word	48
	.word	3
	.word	16
	.word	24
	.word	32
	.align	8
	.quad	.L528
	.word	48
	.word	4
	.word	8
	.word	16
	.word	24
	.word	32
	.align	8
	.quad	.L527
	.word	48
	.word	5
	.word	0
	.word	8
	.word	16
	.word	24
	.word	32
	.align	8
	.quad	.L524
	.word	64
	.word	1
	.word	40
	.align	8
	.quad	.L523
	.word	64
	.word	2
	.word	32
	.word	40
	.align	8
	.quad	.L522
	.word	64
	.word	3
	.word	24
	.word	32
	.word	40
	.align	8
	.quad	.L521
	.word	64
	.word	4
	.word	16
	.word	24
	.word	32
	.word	40
	.align	8
	.quad	.L520
	.word	64
	.word	5
	.word	8
	.word	16
	.word	24
	.word	32
	.word	40
	.align	8
	.quad	.L519
	.word	64
	.word	6
	.word	0
	.word	8
	.word	16
	.word	24
	.word	32
	.word	40
	.align	8
	.quad	.L516
	.word	64
	.word	1
	.word	48
	.align	8
	.quad	.L515
	.word	64
	.word	2
	.word	40
	.word	48
	.align	8
	.quad	.L514
	.word	64
	.word	3
	.word	32
	.word	40
	.word	48
	.align	8
	.quad	.L513
	.word	64
	.word	4
	.word	24
	.word	32
	.word	40
	.word	48
	.align	8
	.quad	.L512
	.word	64
	.word	5
	.word	16
	.word	24
	.word	32
	.word	40
	.word	48
	.align	8
	.quad	.L511
	.word	64
	.word	6
	.word	8
	.word	16
	.word	24
	.word	32
	.word	40
	.word	48
	.align	8
	.quad	.L510
	.word	64
	.word	7
	.word	0
	.word	8
	.word	16
	.word	24
	.word	32
	.word	40
	.word	48
	.align	8
	.quad	.L507
	.word	80
	.word	1
	.word	56
	.align	8
	.quad	.L506
	.word	80
	.word	2
	.word	48
	.word	56
	.align	8
	.quad	.L505
	.word	80
	.word	3
	.word	40
	.word	48
	.word	56
	.align	8
	.quad	.L504
	.word	80
	.word	4
	.word	32
	.word	40
	.word	48
	.word	56
	.align	8
	.quad	.L503
	.word	80
	.word	5
	.word	24
	.word	32
	.word	40
	.word	48
	.word	56
	.align	8
	.quad	.L502
	.word	80
	.word	6
	.word	16
	.word	24
	.word	32
	.word	40
	.word	48
	.word	56
	.align	8
	.quad	.L501
	.word	80
	.word	7
	.word	8
	.word	16
	.word	24
	.word	32
	.word	40
	.word	48
	.word	56
	.align	8
	.quad	.L500
	.word	80
	.word	8
	.word	0
	.word	8
	.word	16
	.word	24
	.word	32
	.word	40
	.word	48
	.word	56
	.align	8
	.quad	.L497
	.word	80
	.word	1
	.word	64
	.align	8
	.quad	.L496
	.word	80
	.word	2
	.word	56
	.word	64
	.align	8
	.quad	.L495
	.word	80
	.word	3
	.word	48
	.word	56
	.word	64
	.align	8
	.quad	.L494
	.word	80
	.word	4
	.word	40
	.word	48
	.word	56
	.word	64
	.align	8
	.quad	.L493
	.word	80
	.word	5
	.word	32
	.word	40
	.word	48
	.word	56
	.word	64
	.align	8
	.quad	.L492
	.word	80
	.word	6
	.word	24
	.word	32
	.word	40
	.word	48
	.word	56
	.word	64
	.align	8
	.quad	.L491
	.word	80
	.word	7
	.word	16
	.word	24
	.word	32
	.word	40
	.word	48
	.word	56
	.word	64
	.align	8
	.quad	.L490
	.word	80
	.word	8
	.word	8
	.word	16
	.word	24
	.word	32
	.word	40
	.word	48
	.word	56
	.word	64
	.align	8
	.quad	.L489
	.word	80
	.word	9
	.word	0
	.word	8
	.word	16
	.word	24
	.word	32
	.word	40
	.word	48
	.word	56
	.word	64
	.align	8
	.quad	.L488
	.word	96
	.word	0
	.align	8
	.quad	.L485
	.word	96
	.word	1
	.word	72
	.align	8
	.quad	.L484
	.word	96
	.word	2
	.word	64
	.word	72
	.align	8
	.quad	.L483
	.word	96
	.word	3
	.word	56
	.word	64
	.word	72
	.align	8
	.quad	.L482
	.word	96
	.word	4
	.word	48
	.word	56
	.word	64
	.word	72
	.align	8
	.quad	.L481
	.word	96
	.word	5
	.word	40
	.word	48
	.word	56
	.word	64
	.word	72
	.align	8
	.quad	.L480
	.word	96
	.word	6
	.word	32
	.word	40
	.word	48
	.word	56
	.word	64
	.word	72
	.align	8
	.quad	.L479
	.word	96
	.word	7
	.word	24
	.word	32
	.word	40
	.word	48
	.word	56
	.word	64
	.word	72
	.align	8
	.quad	.L478
	.word	96
	.word	8
	.word	16
	.word	24
	.word	32
	.word	40
	.word	48
	.word	56
	.word	64
	.word	72
	.align	8
	.quad	.L477
	.word	96
	.word	9
	.word	8
	.word	16
	.word	24
	.word	32
	.word	40
	.word	48
	.word	56
	.word	64
	.word	72
	.align	8
	.quad	.L476
	.word	96
	.word	10
	.word	0
	.word	8
	.word	16
	.word	24
	.word	32
	.word	40
	.word	48
	.word	56
	.word	64
	.word	72
	.align	8
	.quad	.L475
	.word	112
	.word	0
	.align	8
	.quad	.L472
	.word	128
	.word	1
	.word	8
	.align	8
	.quad	.L471
	.word	128
	.word	2
	.word	8
	.word	104
	.align	8
	.quad	.L470
	.word	128
	.word	3
	.word	8
	.word	96
	.word	104
	.align	8
	.quad	.L469
	.word	128
	.word	4
	.word	8
	.word	88
	.word	96
	.word	104
	.align	8
	.quad	.L468
	.word	128
	.word	5
	.word	8
	.word	80
	.word	88
	.word	96
	.word	104
	.align	8
	.quad	.L467
	.word	128
	.word	6
	.word	8
	.word	72
	.word	80
	.word	88
	.word	96
	.word	104
	.align	8
	.quad	.L466
	.word	128
	.word	7
	.word	8
	.word	64
	.word	72
	.word	80
	.word	88
	.word	96
	.word	104
	.align	8
	.quad	.L465
	.word	128
	.word	8
	.word	8
	.word	56
	.word	64
	.word	72
	.word	80
	.word	88
	.word	96
	.word	104
	.align	8
	.quad	.L464
	.word	128
	.word	9
	.word	8
	.word	48
	.word	56
	.word	64
	.word	72
	.word	80
	.word	88
	.word	96
	.word	104
	.align	8
	.quad	.L463
	.word	128
	.word	10
	.word	8
	.word	40
	.word	48
	.word	56
	.word	64
	.word	72
	.word	80
	.word	88
	.word	96
	.word	104
	.align	8
	.quad	.L462
	.word	128
	.word	11
	.word	8
	.word	32
	.word	40
	.word	48
	.word	56
	.word	64
	.word	72
	.word	80
	.word	88
	.word	96
	.word	104
	.align	8
	.quad	.L461
	.word	128
	.word	12
	.word	8
	.word	24
	.word	32
	.word	40
	.word	48
	.word	56
	.word	64
	.word	72
	.word	80
	.word	88
	.word	96
	.word	104
	.align	8
	.quad	.L460
	.word	160
	.word	0
	.align	8
	.quad	.L451
	.word	48
	.word	0
	.align	8
	.quad	.L443
	.word	16
	.word	2
	.word	3
	.word	7
	.align	8
	.quad	.L438
	.word	16
	.word	2
	.word	3
	.word	7
	.align	8
	.quad	.L433
	.word	16
	.word	2
	.word	3
	.word	7
	.align	8
	.quad	.L428
	.word	16
	.word	2
	.word	3
	.word	7
	.align	8
	.quad	.L423
	.word	16
	.word	2
	.word	3
	.word	7
	.align	8
	.quad	.L418
	.word	16
	.word	2
	.word	3
	.word	7
	.align	8
	.quad	.L413
	.word	16
	.word	2
	.word	3
	.word	7
	.align	8
	.quad	.L408
	.word	16
	.word	2
	.word	3
	.word	7
	.align	8
	.quad	.L403
	.word	16
	.word	2
	.word	3
	.word	7
	.align	8
	.quad	.L398
	.word	16
	.word	2
	.word	3
	.word	7
	.align	8
	.quad	.L393
	.word	16
	.word	2
	.word	3
	.word	7
	.align	8
	.quad	.L388
	.word	16
	.word	2
	.word	3
	.word	7
	.align	8
	.quad	.L383
	.word	16
	.word	2
	.word	3
	.word	7
	.align	8
	.quad	.L378
	.word	16
	.word	2
	.word	3
	.word	7
	.align	8
	.quad	.L373
	.word	16
	.word	2
	.word	3
	.word	7
	.align	8
	.quad	.L368
	.word	16
	.word	2
	.word	3
	.word	7
	.align	8
	.quad	.L363
	.word	16
	.word	2
	.word	3
	.word	7
	.align	8
	.quad	.L358
	.word	16
	.word	2
	.word	3
	.word	7
	.align	8
	.quad	.L353
	.word	16
	.word	2
	.word	3
	.word	7
	.align	8
	.quad	.L348
	.word	16
	.word	2
	.word	3
	.word	7
	.align	8
	.quad	.L343
	.word	16
	.word	2
	.word	3
	.word	7
	.align	8
	.quad	.L338
	.word	16
	.word	2
	.word	3
	.word	7
	.align	8
	.quad	.L333
	.word	16
	.word	2
	.word	3
	.word	7
	.align	8
	.quad	.L328
	.word	16
	.word	2
	.word	3
	.word	7
	.align	8
	.quad	.L323
	.word	16
	.word	2
	.word	3
	.word	7
	.align	8
	.quad	.L318
	.word	16
	.word	2
	.word	3
	.word	7
	.align	8
	.quad	.L313
	.word	16
	.word	2
	.word	3
	.word	7
	.align	8
	.quad	.L308
	.word	16
	.word	2
	.word	3
	.word	7
	.align	8
	.quad	.L303
	.word	16
	.word	2
	.word	3
	.word	7
	.align	8
	.quad	.L298
	.word	16
	.word	2
	.word	3
	.word	7
	.align	8
	.quad	.L293
	.word	16
	.word	2
	.word	3
	.word	7
	.align	8
	.quad	.L288
	.word	16
	.word	2
	.word	3
	.word	7
	.align	8
	.quad	.L283
	.word	16
	.word	2
	.word	3
	.word	7
	.align	8
	.quad	.L278
	.word	16
	.word	2
	.word	3
	.word	7
	.align	8
	.quad	.L273
	.word	16
	.word	2
	.word	3
	.word	7
	.align	8
	.quad	.L268
	.word	16
	.word	2
	.word	3
	.word	7
	.align	8
	.quad	.L264
	.word	48
	.word	0
	.align	8
	.quad	.L262
	.word	16
	.word	2
	.word	3
	.word	7
	.align	8
	.quad	.L258
	.word	48
	.word	0
	.align	8
	.quad	.L256
	.word	16
	.word	2
	.word	3
	.word	7
	.align	8
	.quad	.L252
	.word	48
	.word	0
	.align	8
	.quad	.L250
	.word	16
	.word	2
	.word	3
	.word	7
	.align	8
	.quad	.L246
	.word	32
	.word	0
	.align	8
	.quad	.L244
	.word	16
	.word	2
	.word	3
	.word	7
	.align	8
	.quad	.L240
	.word	32
	.word	0
	.align	8
	.quad	.L238
	.word	16
	.word	2
	.word	3
	.word	7
	.align	8
	.quad	.L234
	.word	48
	.word	0
	.align	8
	.quad	.L232
	.word	16
	.word	2
	.word	3
	.word	7
	.align	8
	.quad	.L228
	.word	64
	.word	0
	.align	8
	.quad	.L226
	.word	16
	.word	2
	.word	3
	.word	7
	.align	8
	.quad	.L222
	.word	80
	.word	0
	.align	8
	.quad	.L220
	.word	16
	.word	2
	.word	3
	.word	7
	.align	8
	.quad	.L216
	.word	96
	.word	0
	.align	8
	.quad	.L214
	.word	16
	.word	2
	.word	3
	.word	7
	.align	8
	.quad	.L210
	.word	96
	.word	0
	.align	8
	.quad	.L208
	.word	16
	.word	2
	.word	3
	.word	7
	.align	8
	.quad	.L204
	.word	16
	.word	0
	.align	8
	.quad	.L203
	.word	16
	.word	0
	.align	8
	.quad	.L202
	.word	16
	.word	0
	.align	8
	.quad	.L201
	.word	16
	.word	0
	.align	8
	.quad	.L200
	.word	16
	.word	0
	.align	8
	.quad	.L199
	.word	16
	.word	0
	.align	8
	.quad	.L198
	.word	16
	.word	0
	.align	8
	.quad	.L197
	.word	16
	.word	0
	.align	8
	.quad	.L196
	.word	16
	.word	0
	.align	8
	.quad	.L195
	.word	16
	.word	0
	.align	8
	.quad	.L194
	.word	16
	.word	0
	.align	8
	.quad	.L193
	.word	16
	.word	0
	.align	8
	.quad	.L192
	.word	16
	.word	0
	.align	8
	.quad	.L191
	.word	16
	.word	0
	.align	8
	.quad	.L190
	.word	16
	.word	0
	.align	8
	.quad	.L189
	.word	16
	.word	0
	.align	8
	.quad	.L188
	.word	16
	.word	0
	.align	8
	.quad	.L187
	.word	16
	.word	0
	.align	8
	.quad	.L186
	.word	16
	.word	0
	.align	8
	.quad	.L185
	.word	16
	.word	0
	.align	8
	.quad	.L184
	.word	16
	.word	0
	.align	8
	.quad	.L183
	.word	16
	.word	0
	.align	8
	.quad	.L182
	.word	16
	.word	0
	.align	8
	.quad	.L181
	.word	16
	.word	0
	.align	8
	.quad	.L180
	.word	16
	.word	0
	.align	8
	.quad	.L179
	.word	16
	.word	0
	.align	8
	.quad	.L178
	.word	16
	.word	0
	.align	8
	.quad	.L177
	.word	16
	.word	0
	.align	8
	.quad	.L176
	.word	16
	.word	0
	.align	8
	.quad	.L175
	.word	16
	.word	0
	.align	8
	.quad	.L174
	.word	16
	.word	0
	.align	8
	.quad	.L173
	.word	16
	.word	0
	.align	8
	.quad	.L172
	.word	16
	.word	0
	.align	8
	.quad	.L171
	.word	16
	.word	0
	.align	8
	.quad	.L170
	.word	16
	.word	0
	.align	8
	.quad	.L169
	.word	16
	.word	0
	.align	8
	.quad	.L168
	.word	16
	.word	0
	.align	8
	.quad	.L167
	.word	16
	.word	0
	.align	8
	.quad	.L166
	.word	16
	.word	0
	.align	8
	.quad	.L165
	.word	16
	.word	0
	.align	8
	.quad	.L164
	.word	16
	.word	0
	.align	8
	.quad	.L163
	.word	16
	.word	0
	.align	8
	.quad	.L162
	.word	16
	.word	0
	.align	8
	.quad	.L161
	.word	16
	.word	0
	.align	8
	.quad	.L160
	.word	16
	.word	0
	.align	8
	.quad	.L159
	.word	16
	.word	0
	.align	8
	.quad	.L158
	.word	16
	.word	0
	.align	8
	.quad	.L157
	.word	16
	.word	0
	.align	8
	.quad	.L156
	.word	16
	.word	0
	.align	8
	.quad	.L155
	.word	16
	.word	0
	.align	8
	.quad	.L154
	.word	16
	.word	0
	.align	8
	.quad	.L153
	.word	16
	.word	0
	.align	8
	.quad	.L152
	.word	16
	.word	0
	.align	8
	.quad	.L151
	.word	16
	.word	0
	.align	8
	.quad	.L150
	.word	16
	.word	0
	.align	8
	.quad	.L149
	.word	16
	.word	0
	.align	8
	.quad	.L148
	.word	16
	.word	0
	.align	8
	.quad	.L147
	.word	16
	.word	0
	.align	8
	.quad	.L146
	.word	16
	.word	0
	.align	8
	.quad	.L145
	.word	16
	.word	0
	.align	8
	.quad	.L144
	.word	16
	.word	0
	.align	8
	.quad	.L143
	.word	16
	.word	0
	.align	8
	.quad	.L142
	.word	16
	.word	0
	.align	8
	.quad	.L141
	.word	16
	.word	0
	.align	8
	.quad	.L140
	.word	16
	.word	0
	.align	8
	.quad	.L139
	.word	16
	.word	0
	.align	8
	.quad	.L138
	.word	16
	.word	0
	.align	8
	.quad	.L137
	.word	16
	.word	0
	.align	8
	.quad	.L136
	.word	16
	.word	0
	.align	8
	.quad	.L135
	.word	16
	.word	0
	.align	8
	.quad	.L134
	.word	16
	.word	0
	.align	8
	.quad	.L133
	.word	16
	.word	0
	.align	8
	.quad	.L132
	.word	16
	.word	0
	.align	8
	.quad	.L131
	.word	16
	.word	0
	.align	8
	.quad	.L130
	.word	16
	.word	0
	.align	8
	.quad	.L129
	.word	16
	.word	0
	.align	8
	.quad	.L128
	.word	16
	.word	0
	.align	8
	.quad	.L127
	.word	16
	.word	0
	.align	8
	.quad	.L126
	.word	16
	.word	0
	.align	8
	.quad	.L125
	.word	16
	.word	0
	.align	8
	.quad	.L124
	.word	16
	.word	0
	.align	8
	.quad	.L123
	.word	16
	.word	0
	.align	8
	.quad	.L122
	.word	16
	.word	0
	.align	8
	.quad	.L121
	.word	16
	.word	0
	.align	8
	.quad	.L120
	.word	16
	.word	0
	.align	8
	.quad	.L119
	.word	16
	.word	0
	.align	8
	.quad	.L118
	.word	16
	.word	0
	.align	8
	.quad	.L117
	.word	16
	.word	0
	.align	8
	.quad	.L116
	.word	16
	.word	0
	.align	8
	.quad	.L115
	.word	16
	.word	0
	.align	8
	.quad	.L114
	.word	16
	.word	0
	.align	8
	.quad	.L113
	.word	16
	.word	0
	.align	8
	.quad	.L112
	.word	16
	.word	0
	.align	8
	.quad	.L111
	.word	16
	.word	0
	.align	8
	.quad	.L110
	.word	16
	.word	0
	.align	8
	.quad	.L109
	.word	16
	.word	0
	.align	8
	.quad	.L108
	.word	16
	.word	0
	.align	8
	.quad	.L107
	.word	16
	.word	0
	.align	8
	.quad	.L106
	.word	16
	.word	0
	.align	8
	.quad	.L105
	.word	16
	.word	0
	.align	8
	.quad	.L104
	.word	16
	.word	0
	.align	8
	.quad	.L103
	.word	16
	.word	0
	.align	8
	.quad	.L102
	.word	16
	.word	0
	.align	8
	.quad	.L101
	.word	16
	.word	0
	.align	8
	.section .note.GNU-stack,"",%progbits
